

Microchip MPLAB XC8 Assembler V2.10 build 88905656 
                                                                                               Wed Feb 26 18:32:07 2020

Microchip MPLAB XC8 C Compiler v2.10 (Free license) build 20190730164152 Og1 
     1                           	processor	16F887
     2                           	opt	pw 120
     3                           	opt	flic
     4                           	psect	cinit,global,class=CODE,merge=1,delta=2
     5                           	psect	bssCOMMON,global,class=COMMON,space=1,delta=1
     6                           	psect	cstackCOMMON,global,class=COMMON,space=1,delta=1
     7                           	psect	maintext,global,class=CODE,split=1,delta=2
     8                           	psect	text1,local,class=CODE,merge=1,delta=2
     9                           	psect	text2,local,class=CODE,merge=1,delta=2
    10                           	psect	text3,local,class=CODE,merge=1,delta=2
    11                           	psect	text4,local,class=CODE,merge=1,delta=2
    12                           	psect	intentry,global,class=CODE,delta=2
    13                           	dabs	1,0x7E,2
    14  0000                     
    15                           ; Version 2.10
    16                           ; Generated 31/07/2019 GMT
    17                           ; 
    18                           ; Copyright © 2019, Microchip Technology Inc. and its subsidiaries ("Microchip")
    19                           ; All rights reserved.
    20                           ; 
    21                           ; This software is developed by Microchip Technology Inc. and its subsidiaries ("Microch
      +                          ip").
    22                           ; 
    23                           ; Redistribution and use in source and binary forms, with or without modification, are
    24                           ; permitted provided that the following conditions are met:
    25                           ; 
    26                           ;     1. Redistributions of source code must retain the above copyright notice, this lis
      +                          t of
    27                           ;        conditions and the following disclaimer.
    28                           ; 
    29                           ;     2. Redistributions in binary form must reproduce the above copyright notice, this 
      +                          list
    30                           ;        of conditions and the following disclaimer in the documentation and/or other
    31                           ;        materials provided with the distribution.
    32                           ; 
    33                           ;     3. Microchip's name may not be used to endorse or promote products derived from th
      +                          is
    34                           ;        software without specific prior written permission.
    35                           ; 
    36                           ; THIS SOFTWARE IS PROVIDED BY MICROCHIP "AS IS" AND ANY EXPRESS OR IMPLIED WARRANTIES,
    37                           ; INCLUDING, BUT NOT LIMITED TO, THE IMPLIED WARRANTIES OF MERCHANTABILITY AND FITNESS F
      +                          OR
    38                           ; PURPOSE ARE DISCLAIMED.  IN NO EVENT SHALL MICROCHIP BE LIABLE FOR ANY DIRECT, INDIREC
      +                          T,
    39                           ; INCIDENTAL, SPECIAL, EXEMPLARY, OR CONSEQUENTIAL DAMAGES (INCLUDING BUT NOT LIMITED TO
    40                           ; PROCUREMENT OF SUBSTITUTE GOODS OR SERVICES; LOSS OF USE, DATA OR PROFITS; OR BUSINESS
    41                           ; INTERRUPTION) HOWSOEVER CAUSED AND ON ANY THEORY OF LIABILITY, WHETHER IN CONTRACT, ST
      +                          RICT
    42                           ; LIABILITY, OR TORT (INCLUDING NEGLIGENCE OR OTHERWISE) ARISING IN ANY WAY OUT OF THE U
      +                          SE OF
    43                           ; THIS SOFTWARE, EVEN IF ADVISED OF THE POSSIBILITY OF SUCH DAMAGE.
    44                           ; 
    45                           ; 
    46                           ; Code-generator required, PIC16F887 Definitions
    47                           ; 
    48                           ; SFR Addresses
    49  0000                     	;# 
    50  0001                     	;# 
    51  0002                     	;# 
    52  0003                     	;# 
    53  0004                     	;# 
    54  0005                     	;# 
    55  0006                     	;# 
    56  0007                     	;# 
    57  0008                     	;# 
    58  0009                     	;# 
    59  000A                     	;# 
    60  000B                     	;# 
    61  000C                     	;# 
    62  000D                     	;# 
    63  000E                     	;# 
    64  000E                     	;# 
    65  000F                     	;# 
    66  0010                     	;# 
    67  0011                     	;# 
    68  0012                     	;# 
    69  0013                     	;# 
    70  0014                     	;# 
    71  0015                     	;# 
    72  0015                     	;# 
    73  0016                     	;# 
    74  0017                     	;# 
    75  0018                     	;# 
    76  0019                     	;# 
    77  001A                     	;# 
    78  001B                     	;# 
    79  001B                     	;# 
    80  001C                     	;# 
    81  001D                     	;# 
    82  001E                     	;# 
    83  001F                     	;# 
    84  0081                     	;# 
    85  0085                     	;# 
    86  0086                     	;# 
    87  0087                     	;# 
    88  0088                     	;# 
    89  0089                     	;# 
    90  008C                     	;# 
    91  008D                     	;# 
    92  008E                     	;# 
    93  008F                     	;# 
    94  0090                     	;# 
    95  0091                     	;# 
    96  0092                     	;# 
    97  0093                     	;# 
    98  0093                     	;# 
    99  0093                     	;# 
   100  0094                     	;# 
   101  0095                     	;# 
   102  0096                     	;# 
   103  0097                     	;# 
   104  0098                     	;# 
   105  0099                     	;# 
   106  009A                     	;# 
   107  009B                     	;# 
   108  009C                     	;# 
   109  009D                     	;# 
   110  009E                     	;# 
   111  009F                     	;# 
   112  0105                     	;# 
   113  0107                     	;# 
   114  0108                     	;# 
   115  0109                     	;# 
   116  010C                     	;# 
   117  010C                     	;# 
   118  010D                     	;# 
   119  010E                     	;# 
   120  010F                     	;# 
   121  0185                     	;# 
   122  0187                     	;# 
   123  0188                     	;# 
   124  0189                     	;# 
   125  018C                     	;# 
   126  018D                     	;# 
   127  0000                     	;# 
   128  0001                     	;# 
   129  0002                     	;# 
   130  0003                     	;# 
   131  0004                     	;# 
   132  0005                     	;# 
   133  0006                     	;# 
   134  0007                     	;# 
   135  0008                     	;# 
   136  0009                     	;# 
   137  000A                     	;# 
   138  000B                     	;# 
   139  000C                     	;# 
   140  000D                     	;# 
   141  000E                     	;# 
   142  000E                     	;# 
   143  000F                     	;# 
   144  0010                     	;# 
   145  0011                     	;# 
   146  0012                     	;# 
   147  0013                     	;# 
   148  0014                     	;# 
   149  0015                     	;# 
   150  0015                     	;# 
   151  0016                     	;# 
   152  0017                     	;# 
   153  0018                     	;# 
   154  0019                     	;# 
   155  001A                     	;# 
   156  001B                     	;# 
   157  001B                     	;# 
   158  001C                     	;# 
   159  001D                     	;# 
   160  001E                     	;# 
   161  001F                     	;# 
   162  0081                     	;# 
   163  0085                     	;# 
   164  0086                     	;# 
   165  0087                     	;# 
   166  0088                     	;# 
   167  0089                     	;# 
   168  008C                     	;# 
   169  008D                     	;# 
   170  008E                     	;# 
   171  008F                     	;# 
   172  0090                     	;# 
   173  0091                     	;# 
   174  0092                     	;# 
   175  0093                     	;# 
   176  0093                     	;# 
   177  0093                     	;# 
   178  0094                     	;# 
   179  0095                     	;# 
   180  0096                     	;# 
   181  0097                     	;# 
   182  0098                     	;# 
   183  0099                     	;# 
   184  009A                     	;# 
   185  009B                     	;# 
   186  009C                     	;# 
   187  009D                     	;# 
   188  009E                     	;# 
   189  009F                     	;# 
   190  0105                     	;# 
   191  0107                     	;# 
   192  0108                     	;# 
   193  0109                     	;# 
   194  010C                     	;# 
   195  010C                     	;# 
   196  010D                     	;# 
   197  010E                     	;# 
   198  010F                     	;# 
   199  0185                     	;# 
   200  0187                     	;# 
   201  0188                     	;# 
   202  0189                     	;# 
   203  018C                     	;# 
   204  018D                     	;# 
   205  0000                     	;# 
   206  0001                     	;# 
   207  0002                     	;# 
   208  0003                     	;# 
   209  0004                     	;# 
   210  0005                     	;# 
   211  0006                     	;# 
   212  0007                     	;# 
   213  0008                     	;# 
   214  0009                     	;# 
   215  000A                     	;# 
   216  000B                     	;# 
   217  000C                     	;# 
   218  000D                     	;# 
   219  000E                     	;# 
   220  000E                     	;# 
   221  000F                     	;# 
   222  0010                     	;# 
   223  0011                     	;# 
   224  0012                     	;# 
   225  0013                     	;# 
   226  0014                     	;# 
   227  0015                     	;# 
   228  0015                     	;# 
   229  0016                     	;# 
   230  0017                     	;# 
   231  0018                     	;# 
   232  0019                     	;# 
   233  001A                     	;# 
   234  001B                     	;# 
   235  001B                     	;# 
   236  001C                     	;# 
   237  001D                     	;# 
   238  001E                     	;# 
   239  001F                     	;# 
   240  0081                     	;# 
   241  0085                     	;# 
   242  0086                     	;# 
   243  0087                     	;# 
   244  0088                     	;# 
   245  0089                     	;# 
   246  008C                     	;# 
   247  008D                     	;# 
   248  008E                     	;# 
   249  008F                     	;# 
   250  0090                     	;# 
   251  0091                     	;# 
   252  0092                     	;# 
   253  0093                     	;# 
   254  0093                     	;# 
   255  0093                     	;# 
   256  0094                     	;# 
   257  0095                     	;# 
   258  0096                     	;# 
   259  0097                     	;# 
   260  0098                     	;# 
   261  0099                     	;# 
   262  009A                     	;# 
   263  009B                     	;# 
   264  009C                     	;# 
   265  009D                     	;# 
   266  009E                     	;# 
   267  009F                     	;# 
   268  0105                     	;# 
   269  0107                     	;# 
   270  0108                     	;# 
   271  0109                     	;# 
   272  010C                     	;# 
   273  010C                     	;# 
   274  010D                     	;# 
   275  010E                     	;# 
   276  010F                     	;# 
   277  0185                     	;# 
   278  0187                     	;# 
   279  0188                     	;# 
   280  0189                     	;# 
   281  018C                     	;# 
   282  018D                     	;# 
   283  0000                     	;# 
   284  0001                     	;# 
   285  0002                     	;# 
   286  0003                     	;# 
   287  0004                     	;# 
   288  0005                     	;# 
   289  0006                     	;# 
   290  0007                     	;# 
   291  0008                     	;# 
   292  0009                     	;# 
   293  000A                     	;# 
   294  000B                     	;# 
   295  000C                     	;# 
   296  000D                     	;# 
   297  000E                     	;# 
   298  000E                     	;# 
   299  000F                     	;# 
   300  0010                     	;# 
   301  0011                     	;# 
   302  0012                     	;# 
   303  0013                     	;# 
   304  0014                     	;# 
   305  0015                     	;# 
   306  0015                     	;# 
   307  0016                     	;# 
   308  0017                     	;# 
   309  0018                     	;# 
   310  0019                     	;# 
   311  001A                     	;# 
   312  001B                     	;# 
   313  001B                     	;# 
   314  001C                     	;# 
   315  001D                     	;# 
   316  001E                     	;# 
   317  001F                     	;# 
   318  0081                     	;# 
   319  0085                     	;# 
   320  0086                     	;# 
   321  0087                     	;# 
   322  0088                     	;# 
   323  0089                     	;# 
   324  008C                     	;# 
   325  008D                     	;# 
   326  008E                     	;# 
   327  008F                     	;# 
   328  0090                     	;# 
   329  0091                     	;# 
   330  0092                     	;# 
   331  0093                     	;# 
   332  0093                     	;# 
   333  0093                     	;# 
   334  0094                     	;# 
   335  0095                     	;# 
   336  0096                     	;# 
   337  0097                     	;# 
   338  0098                     	;# 
   339  0099                     	;# 
   340  009A                     	;# 
   341  009B                     	;# 
   342  009C                     	;# 
   343  009D                     	;# 
   344  009E                     	;# 
   345  009F                     	;# 
   346  0105                     	;# 
   347  0107                     	;# 
   348  0108                     	;# 
   349  0109                     	;# 
   350  010C                     	;# 
   351  010C                     	;# 
   352  010D                     	;# 
   353  010E                     	;# 
   354  010F                     	;# 
   355  0185                     	;# 
   356  0187                     	;# 
   357  0188                     	;# 
   358  0189                     	;# 
   359  018C                     	;# 
   360  018D                     	;# 
   361  0005                     _PORTA	set	5
   362  0009                     _PORTE	set	9
   363  0007                     _PORTC	set	7
   364  0005                     _PORTAbits	set	5
   365  0006                     _PORTB	set	6
   366  0008                     _PORTD	set	8
   367  0014                     _SSPCONbits	set	20
   368  000C                     _PIR1bits	set	12
   369  0013                     _SSPBUF	set	19
   370  0014                     _SSPCON	set	20
   371  0063                     _SSPIF	set	99
   372  005E                     _PEIE	set	94
   373  005F                     _GIE	set	95
   374  0089                     _TRISE	set	137
   375  0088                     _TRISD	set	136
   376  0087                     _TRISC	set	135
   377  0086                     _TRISB	set	134
   378  0085                     _TRISA	set	133
   379  0094                     _SSPSTATbits	set	148
   380  008F                     _OSCCONbits	set	143
   381  0091                     _SSPCON2bits	set	145
   382  0087                     _TRISCbits	set	135
   383  0094                     _SSPSTAT	set	148
   384  0093                     _SSPADD	set	147
   385  0091                     _SSPCON2	set	145
   386  04A0                     _BF	set	1184
   387  0463                     _SSPIE	set	1123
   388  043C                     _TRISC4	set	1084
   389  043B                     _TRISC3	set	1083
   390  0189                     _ANSELH	set	393
   391  0188                     _ANSEL	set	392
   392                           
   393                           ; #config settings
   394  0000                     
   395                           	psect	cinit
   396  000F                     start_initialization:	
   397  000F                     __initialization:	
   398                           
   399                           ; Clear objects allocated to COMMON
   400  000F  01F7               	clrf	__pbssCOMMON& (0+127)
   401  0010  01F8               	clrf	(__pbssCOMMON+1)& (0+127)
   402  0011  01F9               	clrf	(__pbssCOMMON+2)& (0+127)
   403  0012  01FA               	clrf	(__pbssCOMMON+3)& (0+127)
   404  0013                     end_of_initialization:	
   405                           ;End of C runtime variable initialization code
   406                           
   407  0013                     __end_of__initialization:	
   408  0013  0183               	clrf	3
   409  0014  120A  118A  28D4   	ljmp	_main	;jump to C main() function
   410                           
   411                           	psect	bssCOMMON
   412  0077                     __pbssCOMMON:	
   413  0077                     _contador:	
   414  0077                     	ds	1
   415  0078                     _BOT2:	
   416  0078                     	ds	1
   417  0079                     _BOT1:	
   418  0079                     	ds	1
   419  007A                     _z:	
   420  007A                     	ds	1
   421                           
   422                           	psect	cstackCOMMON
   423  0070                     __pcstackCOMMON:	
   424  0070                     ?_SETUP:	
   425  0070                     ?_I2C_Slave_Init:	
   426                           ; 1 bytes @ 0x0
   427                           
   428  0070                     ?_initOsc:	
   429                           ; 1 bytes @ 0x0
   430                           
   431  0070                     ?_isr:	
   432                           ; 1 bytes @ 0x0
   433                           
   434  0070                     ??_isr:	
   435                           ; 1 bytes @ 0x0
   436                           
   437  0070                     ?_main:	
   438                           ; 1 bytes @ 0x0
   439                           
   440                           
   441                           ; 1 bytes @ 0x0
   442  0070                     	ds	3
   443  0073                     ??_I2C_Slave_Init:	
   444  0073                     ??_initOsc:	
   445                           ; 1 bytes @ 0x3
   446                           
   447  0073                     I2C_Slave_Init@address:	
   448                           ; 1 bytes @ 0x3
   449                           
   450                           
   451                           ; 1 bytes @ 0x3
   452  0073                     	ds	1
   453  0074                     ??_SETUP:	
   454                           
   455                           ; 1 bytes @ 0x4
   456  0074                     	ds	1
   457  0075                     initOsc@frec:	
   458                           
   459                           ; 1 bytes @ 0x5
   460  0075                     	ds	1
   461  0076                     ??_main:	
   462                           
   463                           ; 1 bytes @ 0x6
   464  0076                     	ds	1
   465                           
   466                           	psect	maintext
   467  00D4                     __pmaintext:	
   468 ;;
   469 ;;Main: autosize = 0, tempsize = 1, incstack = 0, save=0
   470 ;;
   471 ;; *************** function _main *****************
   472 ;; Defined at:
   473 ;;		line 78 in file "Lab5_SLAVE3.c"
   474 ;; Parameters:    Size  Location     Type
   475 ;;		None
   476 ;; Auto vars:     Size  Location     Type
   477 ;;		None
   478 ;; Return value:  Size  Location     Type
   479 ;;                  1    wreg      void 
   480 ;; Registers used:
   481 ;;		wreg, fsr0l, fsr0h, status,2, status,0, pclath, cstack
   482 ;; Tracked objects:
   483 ;;		On entry : B00/0
   484 ;;		On exit  : 0/0
   485 ;;		Unchanged: 0/0
   486 ;; Data sizes:     COMMON   BANK0   BANK1   BANK3   BANK2
   487 ;;      Params:         0       0       0       0       0
   488 ;;      Locals:         0       0       0       0       0
   489 ;;      Temps:          1       0       0       0       0
   490 ;;      Totals:         1       0       0       0       0
   491 ;;Total ram usage:        1 bytes
   492 ;; Hardware stack levels required when called:    3
   493 ;; This function calls:
   494 ;;		_SETUP
   495 ;;		_initOsc
   496 ;; This function is called by:
   497 ;;		Startup code after reset
   498 ;; This function uses a non-reentrant model
   499 ;;
   500                           
   501                           
   502                           ;psect for function _main
   503  00D4                     _main:	
   504  00D4                     l858:	
   505                           ;incstack = 0
   506                           ; Regs used in _main: [wreg-fsr0h+status,2+status,0+pclath+cstack]
   507                           
   508                           
   509                           ;Lab5_SLAVE3.c: 79:     SETUP();
   510  00D4  120A  118A  2118  120A  118A  	fcall	_SETUP
   511  00D9                     l860:	
   512                           
   513                           ;Lab5_SLAVE3.c: 80:     initOsc(6);
   514  00D9  3006               	movlw	6
   515  00DA  120A  118A  2078  120A  118A  	fcall	_initOsc
   516  00DF                     l862:	
   517                           
   518                           ;Lab5_SLAVE3.c: 82:       if (PORTAbits.RA0==1){
   519  00DF  1283               	bcf	3,5	;RP0=0, select bank0
   520  00E0  1303               	bcf	3,6	;RP1=0, select bank0
   521  00E1  1C05               	btfss	5,0	;volatile
   522  00E2  28E4               	goto	u141
   523  00E3  28E5               	goto	u140
   524  00E4                     u141:	
   525  00E4  28E7               	goto	l147
   526  00E5                     u140:	
   527  00E5                     l864:	
   528                           
   529                           ;Lab5_SLAVE3.c: 83:           BOT1 = 1;
   530  00E5  01F9               	clrf	_BOT1
   531  00E6  0AF9               	incf	_BOT1,f
   532  00E7                     l147:	
   533                           ;Lab5_SLAVE3.c: 84:       }
   534                           
   535                           
   536                           ;Lab5_SLAVE3.c: 85:       if (PORTAbits.RA0 == 0 && BOT1==1 && contador <0b00001111){
   537  00E7  1805               	btfsc	5,0	;volatile
   538  00E8  28EA               	goto	u151
   539  00E9  28EB               	goto	u150
   540  00EA                     u151:	
   541  00EA  28FB               	goto	l874
   542  00EB                     u150:	
   543  00EB                     l866:	
   544  00EB  0379               	decf	_BOT1,w
   545  00EC  1D03               	btfss	3,2
   546  00ED  28EF               	goto	u161
   547  00EE  28F0               	goto	u160
   548  00EF                     u161:	
   549  00EF  28FB               	goto	l874
   550  00F0                     u160:	
   551  00F0                     l868:	
   552  00F0  300F               	movlw	15
   553  00F1  0277               	subwf	_contador,w
   554  00F2  1803               	skipnc
   555  00F3  28F5               	goto	u171
   556  00F4  28F6               	goto	u170
   557  00F5                     u171:	
   558  00F5  28FB               	goto	l874
   559  00F6                     u170:	
   560  00F6                     l870:	
   561                           
   562                           ;Lab5_SLAVE3.c: 86:          contador++;
   563  00F6  3001               	movlw	1
   564  00F7  00F6               	movwf	??_main
   565  00F8  0876               	movf	??_main,w
   566  00F9  07F7               	addwf	_contador,f
   567  00FA                     l872:	
   568                           
   569                           ;Lab5_SLAVE3.c: 87:          BOT1 = 0;
   570  00FA  01F9               	clrf	_BOT1
   571  00FB                     l874:	
   572                           
   573                           ;Lab5_SLAVE3.c: 89:       if (PORTAbits.RA3 == 1){
   574  00FB  1D85               	btfss	5,3	;volatile
   575  00FC  28FE               	goto	u181
   576  00FD  28FF               	goto	u180
   577  00FE                     u181:	
   578  00FE  2901               	goto	l149
   579  00FF                     u180:	
   580  00FF                     l876:	
   581                           
   582                           ;Lab5_SLAVE3.c: 90:           BOT2 = 1;
   583  00FF  01F8               	clrf	_BOT2
   584  0100  0AF8               	incf	_BOT2,f
   585  0101                     l149:	
   586                           ;Lab5_SLAVE3.c: 91:       }
   587                           
   588                           
   589                           ;Lab5_SLAVE3.c: 92:       if (PORTAbits.RA3 == 0 && BOT2==1 && contador > 0b00000000){
   590  0101  1985               	btfsc	5,3	;volatile
   591  0102  2904               	goto	u191
   592  0103  2905               	goto	u190
   593  0104                     u191:	
   594  0104  2912               	goto	l886
   595  0105                     u190:	
   596  0105                     l878:	
   597  0105  0378               	decf	_BOT2,w
   598  0106  1D03               	btfss	3,2
   599  0107  2909               	goto	u201
   600  0108  290A               	goto	u200
   601  0109                     u201:	
   602  0109  2912               	goto	l886
   603  010A                     u200:	
   604  010A                     l880:	
   605  010A  0877               	movf	_contador,w
   606  010B  1903               	btfsc	3,2
   607  010C  290E               	goto	u211
   608  010D  290F               	goto	u210
   609  010E                     u211:	
   610  010E  2912               	goto	l886
   611  010F                     u210:	
   612  010F                     l882:	
   613                           
   614                           ;Lab5_SLAVE3.c: 93:           contador--;
   615  010F  3001               	movlw	1
   616  0110  02F7               	subwf	_contador,f
   617  0111                     l884:	
   618                           
   619                           ;Lab5_SLAVE3.c: 94:           BOT2 = 0;
   620  0111  01F8               	clrf	_BOT2
   621  0112                     l886:	
   622                           
   623                           ;Lab5_SLAVE3.c: 96:       PORTB = contador;
   624  0112  0877               	movf	_contador,w
   625  0113  0086               	movwf	6	;volatile
   626  0114  28DF               	goto	l862
   627  0115  120A  118A  280C   	ljmp	start
   628  0118                     __end_of_main:	
   629                           
   630                           	psect	text1
   631  0078                     __ptext1:	
   632 ;; *************** function _initOsc *****************
   633 ;; Defined at:
   634 ;;		line 9 in file "OSCILADOR.c"
   635 ;; Parameters:    Size  Location     Type
   636 ;;  frec            1    wreg     unsigned char 
   637 ;; Auto vars:     Size  Location     Type
   638 ;;  frec            1    5[COMMON] unsigned char 
   639 ;; Return value:  Size  Location     Type
   640 ;;                  1    wreg      void 
   641 ;; Registers used:
   642 ;;		wreg, fsr0l, fsr0h, status,2, status,0
   643 ;; Tracked objects:
   644 ;;		On entry : 0/0
   645 ;;		On exit  : 0/0
   646 ;;		Unchanged: 0/0
   647 ;; Data sizes:     COMMON   BANK0   BANK1   BANK3   BANK2
   648 ;;      Params:         0       0       0       0       0
   649 ;;      Locals:         1       0       0       0       0
   650 ;;      Temps:          2       0       0       0       0
   651 ;;      Totals:         3       0       0       0       0
   652 ;;Total ram usage:        3 bytes
   653 ;; Hardware stack levels used:    1
   654 ;; Hardware stack levels required when called:    1
   655 ;; This function calls:
   656 ;;		Nothing
   657 ;; This function is called by:
   658 ;;		_main
   659 ;; This function uses a non-reentrant model
   660 ;;
   661                           
   662                           
   663                           ;psect for function _initOsc
   664  0078                     _initOsc:	
   665                           
   666                           ;incstack = 0
   667                           ; Regs used in _initOsc: [wreg-fsr0h+status,2+status,0]
   668                           ;initOsc@frec stored from wreg
   669  0078  00F5               	movwf	initOsc@frec
   670  0079                     l766:	
   671                           
   672                           ;OSCILADOR.c: 10:     switch(frec){
   673  0079  28B0               	goto	l770
   674  007A                     l61:	
   675                           ;OSCILADOR.c: 11:         case 0:
   676                           
   677                           
   678                           ;OSCILADOR.c: 12:             OSCCONbits.IRCF0 = 0;
   679  007A  1683               	bsf	3,5	;RP0=1, select bank1
   680  007B  1303               	bcf	3,6	;RP1=0, select bank1
   681  007C  120F               	bcf	15,4	;volatile
   682                           
   683                           ;OSCILADOR.c: 13:             OSCCONbits.IRCF1 = 0;
   684  007D  128F               	bcf	15,5	;volatile
   685                           
   686                           ;OSCILADOR.c: 14:             OSCCONbits.IRCF2 = 0;
   687  007E  130F               	bcf	15,6	;volatile
   688                           
   689                           ;OSCILADOR.c: 15:             break;
   690  007F  28D2               	goto	l62
   691  0080                     l63:	
   692                           ;OSCILADOR.c: 16:         case 1:
   693                           
   694                           
   695                           ;OSCILADOR.c: 17:             OSCCONbits.IRCF0 = 1;
   696  0080  1683               	bsf	3,5	;RP0=1, select bank1
   697  0081  1303               	bcf	3,6	;RP1=0, select bank1
   698  0082  160F               	bsf	15,4	;volatile
   699                           
   700                           ;OSCILADOR.c: 18:             OSCCONbits.IRCF1 = 0;
   701  0083  128F               	bcf	15,5	;volatile
   702                           
   703                           ;OSCILADOR.c: 19:             OSCCONbits.IRCF2 = 0;
   704  0084  130F               	bcf	15,6	;volatile
   705                           
   706                           ;OSCILADOR.c: 20:             break;
   707  0085  28D2               	goto	l62
   708  0086                     l64:	
   709                           ;OSCILADOR.c: 21:         case 2:
   710                           
   711                           
   712                           ;OSCILADOR.c: 22:             OSCCONbits.IRCF0 = 0;
   713  0086  1683               	bsf	3,5	;RP0=1, select bank1
   714  0087  1303               	bcf	3,6	;RP1=0, select bank1
   715  0088  120F               	bcf	15,4	;volatile
   716                           
   717                           ;OSCILADOR.c: 23:             OSCCONbits.IRCF1 = 1;
   718  0089  168F               	bsf	15,5	;volatile
   719                           
   720                           ;OSCILADOR.c: 24:             OSCCONbits.IRCF2 = 0;
   721  008A  130F               	bcf	15,6	;volatile
   722                           
   723                           ;OSCILADOR.c: 25:             break;
   724  008B  28D2               	goto	l62
   725  008C                     l65:	
   726                           ;OSCILADOR.c: 26:         case 3:
   727                           
   728                           
   729                           ;OSCILADOR.c: 27:             OSCCONbits.IRCF0 = 1;
   730  008C  1683               	bsf	3,5	;RP0=1, select bank1
   731  008D  1303               	bcf	3,6	;RP1=0, select bank1
   732  008E  160F               	bsf	15,4	;volatile
   733                           
   734                           ;OSCILADOR.c: 28:             OSCCONbits.IRCF1 = 1;
   735  008F  168F               	bsf	15,5	;volatile
   736                           
   737                           ;OSCILADOR.c: 29:             OSCCONbits.IRCF2 = 0;
   738  0090  130F               	bcf	15,6	;volatile
   739                           
   740                           ;OSCILADOR.c: 30:             break;
   741  0091  28D2               	goto	l62
   742  0092                     l66:	
   743                           ;OSCILADOR.c: 31:         case 4:
   744                           
   745                           
   746                           ;OSCILADOR.c: 32:             OSCCONbits.IRCF0 = 0;
   747  0092  1683               	bsf	3,5	;RP0=1, select bank1
   748  0093  1303               	bcf	3,6	;RP1=0, select bank1
   749  0094  120F               	bcf	15,4	;volatile
   750                           
   751                           ;OSCILADOR.c: 33:             OSCCONbits.IRCF1 = 0;
   752  0095  128F               	bcf	15,5	;volatile
   753                           
   754                           ;OSCILADOR.c: 34:             OSCCONbits.IRCF2 = 1;
   755  0096  170F               	bsf	15,6	;volatile
   756                           
   757                           ;OSCILADOR.c: 35:             break;
   758  0097  28D2               	goto	l62
   759  0098                     l67:	
   760                           ;OSCILADOR.c: 36:         case 5:
   761                           
   762                           
   763                           ;OSCILADOR.c: 37:             OSCCONbits.IRCF0 = 1;
   764  0098  1683               	bsf	3,5	;RP0=1, select bank1
   765  0099  1303               	bcf	3,6	;RP1=0, select bank1
   766  009A  160F               	bsf	15,4	;volatile
   767                           
   768                           ;OSCILADOR.c: 38:             OSCCONbits.IRCF1 = 0;
   769  009B  128F               	bcf	15,5	;volatile
   770                           
   771                           ;OSCILADOR.c: 39:             OSCCONbits.IRCF2 = 1;
   772  009C  170F               	bsf	15,6	;volatile
   773                           
   774                           ;OSCILADOR.c: 40:             break;
   775  009D  28D2               	goto	l62
   776  009E                     l68:	
   777                           ;OSCILADOR.c: 41:         case 6:
   778                           
   779                           
   780                           ;OSCILADOR.c: 42:             OSCCONbits.IRCF0 = 0;
   781  009E  1683               	bsf	3,5	;RP0=1, select bank1
   782  009F  1303               	bcf	3,6	;RP1=0, select bank1
   783  00A0  120F               	bcf	15,4	;volatile
   784                           
   785                           ;OSCILADOR.c: 43:             OSCCONbits.IRCF1 = 1;
   786  00A1  168F               	bsf	15,5	;volatile
   787                           
   788                           ;OSCILADOR.c: 44:             OSCCONbits.IRCF2 = 1;
   789  00A2  170F               	bsf	15,6	;volatile
   790                           
   791                           ;OSCILADOR.c: 45:             break;
   792  00A3  28D2               	goto	l62
   793  00A4                     l69:	
   794                           ;OSCILADOR.c: 46:         case 7:
   795                           
   796                           
   797                           ;OSCILADOR.c: 47:             OSCCONbits.IRCF0 = 1;
   798  00A4  1683               	bsf	3,5	;RP0=1, select bank1
   799  00A5  1303               	bcf	3,6	;RP1=0, select bank1
   800  00A6  160F               	bsf	15,4	;volatile
   801                           
   802                           ;OSCILADOR.c: 48:             OSCCONbits.IRCF1 = 1;
   803  00A7  168F               	bsf	15,5	;volatile
   804                           
   805                           ;OSCILADOR.c: 49:             OSCCONbits.IRCF2 = 1;
   806  00A8  170F               	bsf	15,6	;volatile
   807                           
   808                           ;OSCILADOR.c: 50:             break;
   809  00A9  28D2               	goto	l62
   810  00AA                     l70:	
   811                           ;OSCILADOR.c: 51:         default:
   812                           
   813                           
   814                           ;OSCILADOR.c: 52:             OSCCONbits.IRCF0 = 0;
   815  00AA  1683               	bsf	3,5	;RP0=1, select bank1
   816  00AB  1303               	bcf	3,6	;RP1=0, select bank1
   817  00AC  120F               	bcf	15,4	;volatile
   818                           
   819                           ;OSCILADOR.c: 53:             OSCCONbits.IRCF1 = 1;
   820  00AD  168F               	bsf	15,5	;volatile
   821                           
   822                           ;OSCILADOR.c: 54:             OSCCONbits.IRCF2 = 1;
   823  00AE  170F               	bsf	15,6	;volatile
   824                           
   825                           ;OSCILADOR.c: 55:             break;
   826  00AF  28D2               	goto	l62
   827  00B0                     l770:	
   828  00B0  0875               	movf	initOsc@frec,w
   829  00B1  00F3               	movwf	??_initOsc
   830  00B2  01F4               	clrf	??_initOsc+1
   831                           
   832                           ; Switch on 2 bytes has been partitioned into a top level switch of size 1, and 1 sub-sw
      +                          itches
   833                           ; Switch size 1, requested type "simple"
   834                           ; Number of cases is 1, Range of values is 0 to 0
   835                           ; switch strategies available:
   836                           ; Name         Instructions Cycles
   837                           ; simple_byte            4     3 (average)
   838                           ; direct_byte           11     8 (fixed)
   839                           ; jumptable            260     6 (fixed)
   840                           ;	Chosen strategy is simple_byte
   841  00B3  0874               	movf	??_initOsc+1,w
   842  00B4  3A00               	xorlw	0	; case 0
   843  00B5  1903               	skipnz
   844  00B6  28B8               	goto	l908
   845  00B7  28AA               	goto	l70
   846  00B8                     l908:	
   847                           
   848                           ; Switch size 1, requested type "simple"
   849                           ; Number of cases is 8, Range of values is 0 to 7
   850                           ; switch strategies available:
   851                           ; Name         Instructions Cycles
   852                           ; simple_byte           25    13 (average)
   853                           ; direct_byte           32     8 (fixed)
   854                           ; jumptable            260     6 (fixed)
   855                           ;	Chosen strategy is simple_byte
   856  00B8  0873               	movf	??_initOsc,w
   857  00B9  3A00               	xorlw	0	; case 0
   858  00BA  1903               	skipnz
   859  00BB  287A               	goto	l61
   860  00BC  3A01               	xorlw	1	; case 1
   861  00BD  1903               	skipnz
   862  00BE  2880               	goto	l63
   863  00BF  3A03               	xorlw	3	; case 2
   864  00C0  1903               	skipnz
   865  00C1  2886               	goto	l64
   866  00C2  3A01               	xorlw	1	; case 3
   867  00C3  1903               	skipnz
   868  00C4  288C               	goto	l65
   869  00C5  3A07               	xorlw	7	; case 4
   870  00C6  1903               	skipnz
   871  00C7  2892               	goto	l66
   872  00C8  3A01               	xorlw	1	; case 5
   873  00C9  1903               	skipnz
   874  00CA  2898               	goto	l67
   875  00CB  3A03               	xorlw	3	; case 6
   876  00CC  1903               	skipnz
   877  00CD  289E               	goto	l68
   878  00CE  3A01               	xorlw	1	; case 7
   879  00CF  1903               	skipnz
   880  00D0  28A4               	goto	l69
   881  00D1  28AA               	goto	l70
   882  00D2                     l62:	
   883                           
   884                           ;OSCILADOR.c: 58:     OSCCONbits.SCS = 1;
   885  00D2  140F               	bsf	15,0	;volatile
   886  00D3                     l71:	
   887  00D3  0008               	return
   888  00D4                     __end_of_initOsc:	
   889                           
   890                           	psect	text2
   891  0118                     __ptext2:	
   892 ;; *************** function _SETUP *****************
   893 ;; Defined at:
   894 ;;		line 100 in file "Lab5_SLAVE3.c"
   895 ;; Parameters:    Size  Location     Type
   896 ;;		None
   897 ;; Auto vars:     Size  Location     Type
   898 ;;		None
   899 ;; Return value:  Size  Location     Type
   900 ;;                  1    wreg      void 
   901 ;; Registers used:
   902 ;;		wreg, status,2, status,0, pclath, cstack
   903 ;; Tracked objects:
   904 ;;		On entry : 0/0
   905 ;;		On exit  : 0/0
   906 ;;		Unchanged: 0/0
   907 ;; Data sizes:     COMMON   BANK0   BANK1   BANK3   BANK2
   908 ;;      Params:         0       0       0       0       0
   909 ;;      Locals:         0       0       0       0       0
   910 ;;      Temps:          0       0       0       0       0
   911 ;;      Totals:         0       0       0       0       0
   912 ;;Total ram usage:        0 bytes
   913 ;; Hardware stack levels used:    1
   914 ;; Hardware stack levels required when called:    2
   915 ;; This function calls:
   916 ;;		_I2C_Slave_Init
   917 ;; This function is called by:
   918 ;;		_main
   919 ;; This function uses a non-reentrant model
   920 ;;
   921                           
   922                           
   923                           ;psect for function _SETUP
   924  0118                     _SETUP:	
   925  0118                     l776:	
   926                           ;incstack = 0
   927                           ; Regs used in _SETUP: [wreg+status,2+status,0+pclath+cstack]
   928                           
   929                           
   930                           ;Lab5_SLAVE3.c: 101:     TRISA = 0b00001001;
   931  0118  3009               	movlw	9
   932  0119  1683               	bsf	3,5	;RP0=1, select bank1
   933  011A  1303               	bcf	3,6	;RP1=0, select bank1
   934  011B  0085               	movwf	5	;volatile
   935  011C                     l778:	
   936                           
   937                           ;Lab5_SLAVE3.c: 102:     TRISB = 0;
   938  011C  0186               	clrf	6	;volatile
   939  011D                     l780:	
   940                           
   941                           ;Lab5_SLAVE3.c: 103:     TRISC = 0b00011000;
   942  011D  3018               	movlw	24
   943  011E  0087               	movwf	7	;volatile
   944                           
   945                           ;Lab5_SLAVE3.c: 104:     TRISD = 0;
   946  011F  0188               	clrf	8	;volatile
   947                           
   948                           ;Lab5_SLAVE3.c: 105:     TRISE = 0;
   949  0120  0189               	clrf	9	;volatile
   950                           
   951                           ;Lab5_SLAVE3.c: 106:     ANSEL = 0;
   952  0121  1683               	bsf	3,5	;RP0=1, select bank3
   953  0122  1703               	bsf	3,6	;RP1=1, select bank3
   954  0123  0188               	clrf	8	;volatile
   955                           
   956                           ;Lab5_SLAVE3.c: 107:     ANSELH = 0;
   957  0124  0189               	clrf	9	;volatile
   958                           
   959                           ;Lab5_SLAVE3.c: 108:     PORTB = 0;
   960  0125  1283               	bcf	3,5	;RP0=0, select bank0
   961  0126  1303               	bcf	3,6	;RP1=0, select bank0
   962  0127  0186               	clrf	6	;volatile
   963                           
   964                           ;Lab5_SLAVE3.c: 109:     PORTC = 0;
   965  0128  0187               	clrf	7	;volatile
   966                           
   967                           ;Lab5_SLAVE3.c: 110:     PORTD = 0;
   968  0129  0188               	clrf	8	;volatile
   969                           
   970                           ;Lab5_SLAVE3.c: 111:     PORTE = 0;
   971  012A  0189               	clrf	9	;volatile
   972                           
   973                           ;Lab5_SLAVE3.c: 112:     PORTA = 0;
   974  012B  0185               	clrf	5	;volatile
   975  012C                     l782:	
   976                           
   977                           ;Lab5_SLAVE3.c: 113:     I2C_Slave_Init(0x30);
   978  012C  3030               	movlw	48
   979  012D  120A  118A  2133  120A  118A  	fcall	_I2C_Slave_Init
   980  0132                     l156:	
   981  0132  0008               	return
   982  0133                     __end_of_SETUP:	
   983                           
   984                           	psect	text3
   985  0133                     __ptext3:	
   986 ;; *************** function _I2C_Slave_Init *****************
   987 ;; Defined at:
   988 ;;		line 76 in file "I2C_SLAVE3.c"
   989 ;; Parameters:    Size  Location     Type
   990 ;;  address         1    wreg     unsigned char 
   991 ;; Auto vars:     Size  Location     Type
   992 ;;  address         1    3[COMMON] unsigned char 
   993 ;; Return value:  Size  Location     Type
   994 ;;                  1    wreg      void 
   995 ;; Registers used:
   996 ;;		wreg
   997 ;; Tracked objects:
   998 ;;		On entry : 0/0
   999 ;;		On exit  : 0/0
  1000 ;;		Unchanged: 0/0
  1001 ;; Data sizes:     COMMON   BANK0   BANK1   BANK3   BANK2
  1002 ;;      Params:         0       0       0       0       0
  1003 ;;      Locals:         1       0       0       0       0
  1004 ;;      Temps:          0       0       0       0       0
  1005 ;;      Totals:         1       0       0       0       0
  1006 ;;Total ram usage:        1 bytes
  1007 ;; Hardware stack levels used:    1
  1008 ;; Hardware stack levels required when called:    1
  1009 ;; This function calls:
  1010 ;;		Nothing
  1011 ;; This function is called by:
  1012 ;;		_SETUP
  1013 ;; This function uses a non-reentrant model
  1014 ;;
  1015                           
  1016                           
  1017                           ;psect for function _I2C_Slave_Init
  1018  0133                     _I2C_Slave_Init:	
  1019                           
  1020                           ;incstack = 0
  1021                           ; Regs used in _I2C_Slave_Init: [wreg]
  1022                           ;I2C_Slave_Init@address stored from wreg
  1023  0133  00F3               	movwf	I2C_Slave_Init@address
  1024  0134                     l748:	
  1025                           
  1026                           ;I2C_SLAVE3.c: 77:     SSPADD = address;
  1027  0134  0873               	movf	I2C_Slave_Init@address,w
  1028  0135  1683               	bsf	3,5	;RP0=1, select bank1
  1029  0136  1303               	bcf	3,6	;RP1=0, select bank1
  1030  0137  0093               	movwf	19	;volatile
  1031                           
  1032                           ;I2C_SLAVE3.c: 78:     SSPCON = 0x36;
  1033  0138  3036               	movlw	54
  1034  0139  1283               	bcf	3,5	;RP0=0, select bank0
  1035  013A  1303               	bcf	3,6	;RP1=0, select bank0
  1036  013B  0094               	movwf	20	;volatile
  1037                           
  1038                           ;I2C_SLAVE3.c: 79:     SSPSTAT = 0x80;
  1039  013C  3080               	movlw	128
  1040  013D  1683               	bsf	3,5	;RP0=1, select bank1
  1041  013E  1303               	bcf	3,6	;RP1=0, select bank1
  1042  013F  0094               	movwf	20	;volatile
  1043                           
  1044                           ;I2C_SLAVE3.c: 80:     SSPCON2 = 0x01;
  1045  0140  3001               	movlw	1
  1046  0141  0091               	movwf	17	;volatile
  1047  0142                     l750:	
  1048                           
  1049                           ;I2C_SLAVE3.c: 81:     TRISC3 = 1;
  1050  0142  1587               	bsf	7,3	;volatile
  1051  0143                     l752:	
  1052                           
  1053                           ;I2C_SLAVE3.c: 82:     TRISC4 = 1;
  1054  0143  1607               	bsf	7,4	;volatile
  1055  0144                     l754:	
  1056                           
  1057                           ;I2C_SLAVE3.c: 83:     GIE = 1;
  1058  0144  178B               	bsf	11,7	;volatile
  1059  0145                     l756:	
  1060                           
  1061                           ;I2C_SLAVE3.c: 84:     PEIE = 1;
  1062  0145  170B               	bsf	11,6	;volatile
  1063  0146                     l758:	
  1064                           
  1065                           ;I2C_SLAVE3.c: 85:     SSPIF = 0;
  1066  0146  1283               	bcf	3,5	;RP0=0, select bank0
  1067  0147  1303               	bcf	3,6	;RP1=0, select bank0
  1068  0148  118C               	bcf	12,3	;volatile
  1069  0149                     l760:	
  1070                           
  1071                           ;I2C_SLAVE3.c: 86:     SSPIE = 1;
  1072  0149  1683               	bsf	3,5	;RP0=1, select bank1
  1073  014A  1303               	bcf	3,6	;RP1=0, select bank1
  1074  014B  158C               	bsf	12,3	;volatile
  1075  014C                     l55:	
  1076  014C  0008               	return
  1077  014D                     __end_of_I2C_Slave_Init:	
  1078                           
  1079                           	psect	text4
  1080  0017                     __ptext4:	
  1081 ;; *************** function _isr *****************
  1082 ;; Defined at:
  1083 ;;		line 43 in file "Lab5_SLAVE3.c"
  1084 ;; Parameters:    Size  Location     Type
  1085 ;;		None
  1086 ;; Auto vars:     Size  Location     Type
  1087 ;;		None
  1088 ;; Return value:  Size  Location     Type
  1089 ;;                  1    wreg      void 
  1090 ;; Registers used:
  1091 ;;		wreg
  1092 ;; Tracked objects:
  1093 ;;		On entry : 0/0
  1094 ;;		On exit  : 0/0
  1095 ;;		Unchanged: 0/0
  1096 ;; Data sizes:     COMMON   BANK0   BANK1   BANK3   BANK2
  1097 ;;      Params:         0       0       0       0       0
  1098 ;;      Locals:         0       0       0       0       0
  1099 ;;      Temps:          3       0       0       0       0
  1100 ;;      Totals:         3       0       0       0       0
  1101 ;;Total ram usage:        3 bytes
  1102 ;; Hardware stack levels used:    1
  1103 ;; This function calls:
  1104 ;;		Nothing
  1105 ;; This function is called by:
  1106 ;;		Interrupt level 1
  1107 ;; This function uses a non-reentrant model
  1108 ;;
  1109                           
  1110                           
  1111                           ;psect for function _isr
  1112  0017                     _isr:	
  1113  0017                     i1l824:	
  1114                           
  1115                           ;Lab5_SLAVE3.c: 44:    if(PIR1bits.SSPIF == 1){
  1116  0017  1283               	bcf	3,5	;RP0=0, select bank0
  1117  0018  1303               	bcf	3,6	;RP1=0, select bank0
  1118  0019  1D8C               	btfss	12,3	;volatile
  1119  001A  281C               	goto	u5_21
  1120  001B  281D               	goto	u5_20
  1121  001C                     u5_21:	
  1122  001C  2871               	goto	i1l141
  1123  001D                     u5_20:	
  1124  001D                     i1l826:	
  1125                           
  1126                           ;Lab5_SLAVE3.c: 46:         SSPCONbits.CKP = 0;
  1127  001D  1214               	bcf	20,4	;volatile
  1128                           
  1129                           ;Lab5_SLAVE3.c: 48:         if ((SSPCONbits.SSPOV) || (SSPCONbits.WCOL)){
  1130  001E  1B14               	btfsc	20,6	;volatile
  1131  001F  2821               	goto	u6_21
  1132  0020  2822               	goto	u6_20
  1133  0021                     u6_21:	
  1134  0021  2826               	goto	i1l830
  1135  0022                     u6_20:	
  1136  0022                     i1l828:	
  1137  0022  1F94               	btfss	20,7	;volatile
  1138  0023  2825               	goto	u7_21
  1139  0024  2826               	goto	u7_20
  1140  0025                     u7_21:	
  1141  0025  282D               	goto	i1l838
  1142  0026                     u7_20:	
  1143  0026                     i1l830:	
  1144                           
  1145                           ;Lab5_SLAVE3.c: 49:             z = SSPBUF;
  1146  0026  0813               	movf	19,w	;volatile
  1147  0027  00F0               	movwf	??_isr
  1148  0028  0870               	movf	??_isr,w
  1149  0029  00FA               	movwf	_z
  1150  002A                     i1l832:	
  1151                           
  1152                           ;Lab5_SLAVE3.c: 50:             SSPCONbits.SSPOV = 0;
  1153  002A  1314               	bcf	20,6	;volatile
  1154  002B                     i1l834:	
  1155                           
  1156                           ;Lab5_SLAVE3.c: 51:             SSPCONbits.WCOL = 0;
  1157  002B  1394               	bcf	20,7	;volatile
  1158  002C                     i1l836:	
  1159                           
  1160                           ;Lab5_SLAVE3.c: 52:             SSPCONbits.CKP = 1;
  1161  002C  1614               	bsf	20,4	;volatile
  1162  002D                     i1l838:	
  1163                           
  1164                           ;Lab5_SLAVE3.c: 55:         if(!SSPSTATbits.D_nA && !SSPSTATbits.R_nW) {
  1165  002D  1683               	bsf	3,5	;RP0=1, select bank1
  1166  002E  1303               	bcf	3,6	;RP1=0, select bank1
  1167  002F  1A94               	btfsc	20,5	;volatile
  1168  0030  2832               	goto	u8_21
  1169  0031  2833               	goto	u8_20
  1170  0032                     u8_21:	
  1171  0032  284E               	goto	i1l132
  1172  0033                     u8_20:	
  1173  0033                     i1l840:	
  1174  0033  1914               	btfsc	20,2	;volatile
  1175  0034  2836               	goto	u9_21
  1176  0035  2837               	goto	u9_20
  1177  0036                     u9_21:	
  1178  0036  284E               	goto	i1l132
  1179  0037                     u9_20:	
  1180  0037                     i1l842:	
  1181                           
  1182                           ;Lab5_SLAVE3.c: 57:             z = SSPBUF;
  1183  0037  1283               	bcf	3,5	;RP0=0, select bank0
  1184  0038  1303               	bcf	3,6	;RP1=0, select bank0
  1185  0039  0813               	movf	19,w	;volatile
  1186  003A  00F0               	movwf	??_isr
  1187  003B  0870               	movf	??_isr,w
  1188  003C  00FA               	movwf	_z
  1189  003D                     i1l844:	
  1190                           
  1191                           ;Lab5_SLAVE3.c: 59:             PIR1bits.SSPIF = 0;
  1192  003D  118C               	bcf	12,3	;volatile
  1193  003E                     i1l846:	
  1194                           
  1195                           ;Lab5_SLAVE3.c: 60:             SSPCONbits.CKP = 1;
  1196  003E  1614               	bsf	20,4	;volatile
  1197  003F                     i1l133:	
  1198                           ;Lab5_SLAVE3.c: 61:             while(!SSPSTATbits.BF);
  1199                           
  1200  003F  1683               	bsf	3,5	;RP0=1, select bank1
  1201  0040  1303               	bcf	3,6	;RP1=0, select bank1
  1202  0041  1C14               	btfss	20,0	;volatile
  1203  0042  2844               	goto	u10_21
  1204  0043  2845               	goto	u10_20
  1205  0044                     u10_21:	
  1206  0044  283F               	goto	i1l133
  1207  0045                     u10_20:	
  1208  0045                     i1l848:	
  1209                           
  1210                           ;Lab5_SLAVE3.c: 62:             PORTD = SSPBUF;
  1211  0045  1283               	bcf	3,5	;RP0=0, select bank0
  1212  0046  1303               	bcf	3,6	;RP1=0, select bank0
  1213  0047  0813               	movf	19,w	;volatile
  1214  0048  0088               	movwf	8	;volatile
  1215                           
  1216                           ;Lab5_SLAVE3.c: 63:             _delay((unsigned long)((250)*(4000000/4000000.0)));
  1217  0049  3053               	movlw	83
  1218  004A  00F0               	movwf	??_isr
  1219  004B                     u22_27:	
  1220  004B  0BF0               	decfsz	??_isr,f
  1221  004C  284B               	goto	u22_27
  1222                           
  1223                           ;Lab5_SLAVE3.c: 65:         }else if(!SSPSTATbits.D_nA && SSPSTATbits.R_nW){
  1224  004D  286E               	goto	i1l136
  1225  004E                     i1l132:	
  1226  004E  1A94               	btfsc	20,5	;volatile
  1227  004F  2851               	goto	u11_21
  1228  0050  2852               	goto	u11_20
  1229  0051                     u11_21:	
  1230  0051  286E               	goto	i1l136
  1231  0052                     u11_20:	
  1232  0052                     i1l850:	
  1233  0052  1D14               	btfss	20,2	;volatile
  1234  0053  2855               	goto	u12_21
  1235  0054  2856               	goto	u12_20
  1236  0055                     u12_21:	
  1237  0055  286E               	goto	i1l136
  1238  0056                     u12_20:	
  1239  0056                     i1l852:	
  1240                           
  1241                           ;Lab5_SLAVE3.c: 66:             z = SSPBUF;
  1242  0056  1283               	bcf	3,5	;RP0=0, select bank0
  1243  0057  1303               	bcf	3,6	;RP1=0, select bank0
  1244  0058  0813               	movf	19,w	;volatile
  1245  0059  00F0               	movwf	??_isr
  1246  005A  0870               	movf	??_isr,w
  1247  005B  00FA               	movwf	_z
  1248  005C                     i1l854:	
  1249                           
  1250                           ;Lab5_SLAVE3.c: 67:             BF = 0;
  1251  005C  1683               	bsf	3,5	;RP0=1, select bank1
  1252  005D  1303               	bcf	3,6	;RP1=0, select bank1
  1253  005E  1014               	bcf	20,0	;volatile
  1254                           
  1255                           ;Lab5_SLAVE3.c: 68:             SSPBUF = PORTB;
  1256  005F  1283               	bcf	3,5	;RP0=0, select bank0
  1257  0060  1303               	bcf	3,6	;RP1=0, select bank0
  1258  0061  0806               	movf	6,w	;volatile
  1259  0062  0093               	movwf	19	;volatile
  1260  0063                     i1l856:	
  1261                           
  1262                           ;Lab5_SLAVE3.c: 69:             SSPCONbits.CKP = 1;
  1263  0063  1614               	bsf	20,4	;volatile
  1264                           
  1265                           ;Lab5_SLAVE3.c: 70:             _delay((unsigned long)((250)*(4000000/4000000.0)));
  1266  0064  3053               	movlw	83
  1267  0065  00F0               	movwf	??_isr
  1268  0066                     u23_27:	
  1269  0066  0BF0               	decfsz	??_isr,f
  1270  0067  2866               	goto	u23_27
  1271  0068                     i1l138:	
  1272                           ;Lab5_SLAVE3.c: 71:             while(SSPSTATbits.BF);
  1273                           
  1274  0068  1683               	bsf	3,5	;RP0=1, select bank1
  1275  0069  1303               	bcf	3,6	;RP1=0, select bank1
  1276  006A  1814               	btfsc	20,0	;volatile
  1277  006B  286D               	goto	u13_21
  1278  006C  286E               	goto	u13_20
  1279  006D                     u13_21:	
  1280  006D  2868               	goto	i1l138
  1281  006E                     u13_20:	
  1282  006E                     i1l136:	
  1283                           
  1284                           ;Lab5_SLAVE3.c: 74:         PIR1bits.SSPIF = 0;
  1285  006E  1283               	bcf	3,5	;RP0=0, select bank0
  1286  006F  1303               	bcf	3,6	;RP1=0, select bank0
  1287  0070  118C               	bcf	12,3	;volatile
  1288  0071                     i1l141:	
  1289  0071  0872               	movf	??_isr+2,w
  1290  0072  008A               	movwf	10
  1291  0073  0E71               	swapf	(??_isr+1)^(0+4294967168),w
  1292  0074  0083               	movwf	3
  1293  0075  0EFE               	swapf	btemp,f
  1294  0076  0E7E               	swapf	btemp,w
  1295  0077  0009               	retfie
  1296  0078                     __end_of_isr:	
  1297  007E                     btemp	set	126	;btemp
  1298  007E                     wtemp0	set	126
  1299                           
  1300                           	psect	intentry
  1301  0004                     __pintentry:	
  1302                           ;incstack = 0
  1303                           ; Regs used in _isr: [wreg]
  1304                           
  1305  0004                     interrupt_function:	
  1306  007E                     saved_w	set	btemp
  1307  0004  00FE               	movwf	btemp
  1308  0005  0E03               	swapf	3,w
  1309  0006  00F1               	movwf	??_isr+1
  1310  0007  080A               	movf	10,w
  1311  0008  00F2               	movwf	??_isr+2
  1312  0009  120A  118A  2817   	ljmp	_isr


Data Sizes:
    Strings     0
    Constant    0
    Data        0
    BSS         4
    Persistent  0
    Stack       0

Auto Spaces:
    Space          Size  Autos    Used
    COMMON           14      7      11
    BANK0            80      0       0
    BANK1            80      0       0
    BANK3            96      0       0
    BANK2            96      0       0

Pointer List with Targets:

    None.

Critical Paths under _main in COMMON

    _main->_initOsc
    _SETUP->_I2C_Slave_Init

Critical Paths under _isr in COMMON

    None.

Critical Paths under _main in BANK0

    None.

Critical Paths under _isr in BANK0

    None.

Critical Paths under _main in BANK1

    None.

Critical Paths under _isr in BANK1

    None.

Critical Paths under _main in BANK3

    None.

Critical Paths under _isr in BANK3

    None.

Critical Paths under _main in BANK2

    None.

Critical Paths under _isr in BANK2

    None.

Call Graph Tables:

 ---------------------------------------------------------------------------------
 (Depth) Function   	        Calls       Base Space   Used Autos Params    Refs
 ---------------------------------------------------------------------------------
 (0) _main                                                 1     1      0      30
                                              6 COMMON     1     1      0
                              _SETUP
                            _initOsc
 ---------------------------------------------------------------------------------
 (1) _initOsc                                              3     3      0      15
                                              3 COMMON     3     3      0
 ---------------------------------------------------------------------------------
 (1) _SETUP                                                0     0      0      15
                     _I2C_Slave_Init
 ---------------------------------------------------------------------------------
 (2) _I2C_Slave_Init                                       1     1      0      15
                                              3 COMMON     1     1      0
 ---------------------------------------------------------------------------------
 Estimated maximum stack depth 2
 ---------------------------------------------------------------------------------
 (Depth) Function   	        Calls       Base Space   Used Autos Params    Refs
 ---------------------------------------------------------------------------------
 (3) _isr                                                  3     3      0       0
                                              0 COMMON     3     3      0
 ---------------------------------------------------------------------------------
 Estimated maximum stack depth 3
 ---------------------------------------------------------------------------------

 Call Graph Graphs:

 _main (ROOT)
   _SETUP
     _I2C_Slave_Init
   _initOsc

 _isr (ROOT)

 Address spaces:
Name               Size   Autos  Total    Cost      Usage
BITCOMMON            E      0       0       0        0.0%
EEDATA             100      0       0       0        0.0%
NULL                 0      0       0       0        0.0%
CODE                 0      0       0       0        0.0%
COMMON               E      7       B       1       78.6%
BITSFR0              0      0       0       1        0.0%
SFR0                 0      0       0       1        0.0%
BITSFR1              0      0       0       2        0.0%
SFR1                 0      0       0       2        0.0%
STACK                0      0       0       2        0.0%
ABS                  0      0       B       3        0.0%
BITBANK0            50      0       0       4        0.0%
BITSFR3              0      0       0       4        0.0%
SFR3                 0      0       0       4        0.0%
BANK0               50      0       0       5        0.0%
BITSFR2              0      0       0       5        0.0%
SFR2                 0      0       0       5        0.0%
BITBANK1            50      0       0       6        0.0%
BANK1               50      0       0       7        0.0%
BITBANK3            60      0       0       8        0.0%
BANK3               60      0       0       9        0.0%
BITBANK2            60      0       0      10        0.0%
BANK2               60      0       0      11        0.0%
DATA                 0      0       B      12        0.0%


Microchip Technology PIC Macro Assembler V2.10 build 88905656 
Symbol Table                                                                                   Wed Feb 26 18:32:07 2020

                       _z 007A               __CFG_CP$OFF 0000               _SSPSTATbits 0094  
                      _BF 04A0                        l61 007A                        l70 00AA  
                      l62 00D2                        l55 014C                        l71 00D3  
                      l63 0080                        l64 0086                        l65 008C  
                      l66 0092                        l67 0098                        l68 009E  
                      l69 00A4                       l147 00E7                       l156 0132  
                     l149 0101                       l750 0142                       l760 0149  
                     l752 0143                       l754 0144                       l770 00B0  
                     l756 0145                       l748 0134                       l780 011D  
                     l908 00B8                       l860 00D9                       l758 0146  
                     l782 012C                       l766 0079                       l870 00F6  
                     l862 00DF                       l776 0118                       l880 010A  
                     l872 00FA                       l864 00E5                       l778 011C  
                     l882 010F                       l866 00EB                       l874 00FB  
                     l858 00D4                       l884 0111                       l876 00FF  
                     l868 00F0                       l878 0105                       l886 0112  
                     _GIE 005F                       u200 010A                       u201 0109  
                     u210 010F                       u211 010E                       u140 00E5  
                     u141 00E4                       u150 00EB                       u151 00EA  
                     u160 00F0                       u161 00EF                       u170 00F6  
                     u171 00F5                       u180 00FF                       u181 00FE  
                     u190 0105                       u191 0104              __CFG_CPD$OFF 0000  
                     _isr 0017              __CFG_LVP$OFF 0000                      ?_isr 0070  
                    _BOT1 0079                      _BOT2 0078                      _PEIE 005E  
                    u5_20 001D                      u5_21 001C                      u6_20 0022  
                    u6_21 0021                      u7_20 0026                      u7_21 0025  
                    u8_20 0033                      u8_21 0032                      u9_20 0037  
                    u9_21 0036              __CFG_WRT$OFF 0000                      _main 00D4  
                    btemp 007E                      start 000C             __CFG_IESO$OFF 0000  
                   ??_isr 0070                     ?_main 0070             __CFG_WDTE$OFF 0000  
                   _ANSEL 0188                     i1l132 004E                     i1l133 003F  
                   i1l141 0071                     i1l136 006E                     i1l138 0068  
                   i1l830 0026                     i1l840 0033                     i1l832 002A  
                   i1l824 0017                     i1l850 0052                     i1l842 0037  
                   i1l834 002B                     i1l826 001D                     i1l852 0056  
                   i1l844 003D                     i1l836 002C                     i1l828 0022  
                   i1l854 005C                     i1l846 003E                     i1l838 002D  
                   i1l856 0063                     i1l848 0045                     u10_20 0045  
                   u10_21 0044                     u11_20 0052                     u11_21 0051  
                   u12_20 0056                     u12_21 0055                     u13_20 006E  
                   u13_21 006D                     u22_27 004B                     u23_27 0066  
                   _SETUP 0118                     _PORTA 0005                     _PORTB 0006  
                   _PORTC 0007                     _PORTD 0008                     _PORTE 0009  
                   _TRISA 0085                     _TRISB 0086                     _TRISC 0087  
                   _TRISD 0088                     _SSPIE 0463                     _TRISE 0089  
                   _SSPIF 0063            __CFG_FCMEN$OFF 0000           __end_of_initOsc 00D4  
          __CFG_BOREN$OFF 0000                     pclath 000A                     status 0003  
                   wtemp0 007E            __CFG_MCLRE$OFF 0000           __initialization 000F  
            __end_of_main 0118                    ??_main 0076                    ?_SETUP 0070  
                  _ANSELH 0189               initOsc@frec 0075                    _SSPADD 0093  
                  _TRISC3 043B                    _TRISC4 043C                    _SSPCON 0014  
                  _SSPBUF 0013            __CFG_PWRTE$OFF 0000                 ??_initOsc 0073  
                  saved_w 007E   __end_of__initialization 0013             __end_of_SETUP 0133  
          __pcstackCOMMON 0070   __size_of_I2C_Slave_Init 001A                   ??_SETUP 0074  
   I2C_Slave_Init@address 0073                __pmaintext 00D4                __pintentry 0004  
                 _SSPCON2 0091                   _SSPSTAT 0094                   __ptext1 0078  
                 __ptext2 0118                   __ptext3 0133                   __ptext4 0017  
                 _initOsc 0078              __size_of_isr 0061      end_of_initialization 0013  
          _I2C_Slave_Init 0133                 _PORTAbits 0005                 _TRISCbits 0087  
  __end_of_I2C_Slave_Init 014D       start_initialization 000F               __end_of_isr 0078  
__CFG_FOSC$INTRC_NOCLKOUT 0000           ?_I2C_Slave_Init 0070               __pbssCOMMON 0077  
               ___latbits 0002                  ?_initOsc 0070            __size_of_SETUP 001B  
       interrupt_function 0004                  _PIR1bits 000C          __size_of_initOsc 005C  
       __CFG_BOR4V$BOR40V 0000                  _contador 0077          ??_I2C_Slave_Init 0073  
           __size_of_main 0044                  intlevel1 0000                _OSCCONbits 008F  
             _SSPCON2bits 0091                _SSPCONbits 0014  
