

Microchip MPLAB XC8 Assembler V2.10 build 88905656 
                                                                                               Wed Feb 26 15:47:08 2020

Microchip MPLAB XC8 C Compiler v2.10 (Free license) build 20190730164152 Og1 
     1                           	processor	16F887
     2                           	opt	pw 120
     3                           	opt	flic
     4                           	psect	strings,global,class=STRING,delta=2
     5                           	psect	cinit,global,class=CODE,merge=1,delta=2
     6                           	psect	bssBANK0,global,class=BANK0,space=1,delta=1
     7                           	psect	bssBANK1,global,class=BANK1,space=1,delta=1
     8                           	psect	clrtext,global,class=CODE,delta=2
     9                           	psect	cstackCOMMON,global,class=COMMON,space=1,delta=1
    10                           	psect	cstackBANK0,global,class=BANK0,space=1,delta=1
    11                           	psect	maintext,global,class=CODE,split=1,delta=2
    12                           	psect	text1,local,class=CODE,merge=1,delta=2,group=2
    13                           	psect	text2,local,class=CODE,merge=1,delta=2,group=2
    14                           	psect	text3,local,class=CODE,merge=1,delta=2
    15                           	psect	text4,local,class=CODE,merge=1,delta=2
    16                           	psect	text5,local,class=CODE,merge=1,delta=2
    17                           	psect	text6,local,class=CODE,merge=1,delta=2
    18                           	psect	text7,local,class=CODE,merge=1,delta=2
    19                           	psect	text8,local,class=CODE,merge=1,delta=2,group=2
    20                           	psect	text9,local,class=CODE,merge=1,delta=2,group=2
    21                           	psect	text10,local,class=CODE,merge=1,delta=2,group=1
    22                           	psect	text11,local,class=CODE,merge=1,delta=2,group=1
    23                           	psect	text12,local,class=CODE,merge=1,delta=2
    24                           	psect	text13,local,class=CODE,merge=1,delta=2,group=1
    25                           	psect	text14,local,class=CODE,merge=1,delta=2,group=1
    26                           	psect	text15,local,class=CODE,merge=1,delta=2,group=1
    27                           	psect	text16,local,class=CODE,merge=1,delta=2,group=1
    28                           	psect	text17,local,class=CODE,merge=1,delta=2,group=1
    29                           	psect	text18,local,class=CODE,merge=1,delta=2,group=1
    30                           	psect	text19,local,class=CODE,merge=1,delta=2,group=1
    31                           	psect	text20,local,class=CODE,merge=1,delta=2
    32                           	psect	text21,local,class=CODE,merge=1,delta=2
    33                           	psect	text22,local,class=CODE,merge=1,delta=2
    34                           	psect	text23,local,class=CODE,merge=1,delta=2
    35                           	psect	text24,local,class=CODE,merge=1,delta=2
    36                           	psect	text25,local,class=CODE,merge=1,delta=2
    37                           	psect	text26,local,class=CODE,merge=1,delta=2
    38                           	psect	text27,local,class=CODE,merge=1,delta=2,group=1
    39                           	dabs	1,0x7E,2
    40  0000                     
    41                           ; Version 2.10
    42                           ; Generated 31/07/2019 GMT
    43                           ; 
    44                           ; Copyright © 2019, Microchip Technology Inc. and its subsidiaries ("Microchip")
    45                           ; All rights reserved.
    46                           ; 
    47                           ; This software is developed by Microchip Technology Inc. and its subsidiaries ("Microch
      +                          ip").
    48                           ; 
    49                           ; Redistribution and use in source and binary forms, with or without modification, are
    50                           ; permitted provided that the following conditions are met:
    51                           ; 
    52                           ;     1. Redistributions of source code must retain the above copyright notice, this lis
      +                          t of
    53                           ;        conditions and the following disclaimer.
    54                           ; 
    55                           ;     2. Redistributions in binary form must reproduce the above copyright notice, this 
      +                          list
    56                           ;        of conditions and the following disclaimer in the documentation and/or other
    57                           ;        materials provided with the distribution.
    58                           ; 
    59                           ;     3. Microchip's name may not be used to endorse or promote products derived from th
      +                          is
    60                           ;        software without specific prior written permission.
    61                           ; 
    62                           ; THIS SOFTWARE IS PROVIDED BY MICROCHIP "AS IS" AND ANY EXPRESS OR IMPLIED WARRANTIES,
    63                           ; INCLUDING, BUT NOT LIMITED TO, THE IMPLIED WARRANTIES OF MERCHANTABILITY AND FITNESS F
      +                          OR
    64                           ; PURPOSE ARE DISCLAIMED.  IN NO EVENT SHALL MICROCHIP BE LIABLE FOR ANY DIRECT, INDIREC
      +                          T,
    65                           ; INCIDENTAL, SPECIAL, EXEMPLARY, OR CONSEQUENTIAL DAMAGES (INCLUDING BUT NOT LIMITED TO
    66                           ; PROCUREMENT OF SUBSTITUTE GOODS OR SERVICES; LOSS OF USE, DATA OR PROFITS; OR BUSINESS
    67                           ; INTERRUPTION) HOWSOEVER CAUSED AND ON ANY THEORY OF LIABILITY, WHETHER IN CONTRACT, ST
      +                          RICT
    68                           ; LIABILITY, OR TORT (INCLUDING NEGLIGENCE OR OTHERWISE) ARISING IN ANY WAY OUT OF THE U
      +                          SE OF
    69                           ; THIS SOFTWARE, EVEN IF ADVISED OF THE POSSIBILITY OF SUCH DAMAGE.
    70                           ; 
    71                           ; 
    72                           ; Code-generator required, PIC16F887 Definitions
    73                           ; 
    74                           ; SFR Addresses
    75  0000                     	;# 
    76  0001                     	;# 
    77  0002                     	;# 
    78  0003                     	;# 
    79  0004                     	;# 
    80  0005                     	;# 
    81  0006                     	;# 
    82  0007                     	;# 
    83  0008                     	;# 
    84  0009                     	;# 
    85  000A                     	;# 
    86  000B                     	;# 
    87  000C                     	;# 
    88  000D                     	;# 
    89  000E                     	;# 
    90  000E                     	;# 
    91  000F                     	;# 
    92  0010                     	;# 
    93  0011                     	;# 
    94  0012                     	;# 
    95  0013                     	;# 
    96  0014                     	;# 
    97  0015                     	;# 
    98  0015                     	;# 
    99  0016                     	;# 
   100  0017                     	;# 
   101  0018                     	;# 
   102  0019                     	;# 
   103  001A                     	;# 
   104  001B                     	;# 
   105  001B                     	;# 
   106  001C                     	;# 
   107  001D                     	;# 
   108  001E                     	;# 
   109  001F                     	;# 
   110  0081                     	;# 
   111  0085                     	;# 
   112  0086                     	;# 
   113  0087                     	;# 
   114  0088                     	;# 
   115  0089                     	;# 
   116  008C                     	;# 
   117  008D                     	;# 
   118  008E                     	;# 
   119  008F                     	;# 
   120  0090                     	;# 
   121  0091                     	;# 
   122  0092                     	;# 
   123  0093                     	;# 
   124  0093                     	;# 
   125  0093                     	;# 
   126  0094                     	;# 
   127  0095                     	;# 
   128  0096                     	;# 
   129  0097                     	;# 
   130  0098                     	;# 
   131  0099                     	;# 
   132  009A                     	;# 
   133  009B                     	;# 
   134  009C                     	;# 
   135  009D                     	;# 
   136  009E                     	;# 
   137  009F                     	;# 
   138  0105                     	;# 
   139  0107                     	;# 
   140  0108                     	;# 
   141  0109                     	;# 
   142  010C                     	;# 
   143  010C                     	;# 
   144  010D                     	;# 
   145  010E                     	;# 
   146  010F                     	;# 
   147  0185                     	;# 
   148  0187                     	;# 
   149  0188                     	;# 
   150  0189                     	;# 
   151  018C                     	;# 
   152  018D                     	;# 
   153  0000                     	;# 
   154  0001                     	;# 
   155  0002                     	;# 
   156  0003                     	;# 
   157  0004                     	;# 
   158  0005                     	;# 
   159  0006                     	;# 
   160  0007                     	;# 
   161  0008                     	;# 
   162  0009                     	;# 
   163  000A                     	;# 
   164  000B                     	;# 
   165  000C                     	;# 
   166  000D                     	;# 
   167  000E                     	;# 
   168  000E                     	;# 
   169  000F                     	;# 
   170  0010                     	;# 
   171  0011                     	;# 
   172  0012                     	;# 
   173  0013                     	;# 
   174  0014                     	;# 
   175  0015                     	;# 
   176  0015                     	;# 
   177  0016                     	;# 
   178  0017                     	;# 
   179  0018                     	;# 
   180  0019                     	;# 
   181  001A                     	;# 
   182  001B                     	;# 
   183  001B                     	;# 
   184  001C                     	;# 
   185  001D                     	;# 
   186  001E                     	;# 
   187  001F                     	;# 
   188  0081                     	;# 
   189  0085                     	;# 
   190  0086                     	;# 
   191  0087                     	;# 
   192  0088                     	;# 
   193  0089                     	;# 
   194  008C                     	;# 
   195  008D                     	;# 
   196  008E                     	;# 
   197  008F                     	;# 
   198  0090                     	;# 
   199  0091                     	;# 
   200  0092                     	;# 
   201  0093                     	;# 
   202  0093                     	;# 
   203  0093                     	;# 
   204  0094                     	;# 
   205  0095                     	;# 
   206  0096                     	;# 
   207  0097                     	;# 
   208  0098                     	;# 
   209  0099                     	;# 
   210  009A                     	;# 
   211  009B                     	;# 
   212  009C                     	;# 
   213  009D                     	;# 
   214  009E                     	;# 
   215  009F                     	;# 
   216  0105                     	;# 
   217  0107                     	;# 
   218  0108                     	;# 
   219  0109                     	;# 
   220  010C                     	;# 
   221  010C                     	;# 
   222  010D                     	;# 
   223  010E                     	;# 
   224  010F                     	;# 
   225  0185                     	;# 
   226  0187                     	;# 
   227  0188                     	;# 
   228  0189                     	;# 
   229  018C                     	;# 
   230  018D                     	;# 
   231  0000                     	;# 
   232  0001                     	;# 
   233  0002                     	;# 
   234  0003                     	;# 
   235  0004                     	;# 
   236  0005                     	;# 
   237  0006                     	;# 
   238  0007                     	;# 
   239  0008                     	;# 
   240  0009                     	;# 
   241  000A                     	;# 
   242  000B                     	;# 
   243  000C                     	;# 
   244  000D                     	;# 
   245  000E                     	;# 
   246  000E                     	;# 
   247  000F                     	;# 
   248  0010                     	;# 
   249  0011                     	;# 
   250  0012                     	;# 
   251  0013                     	;# 
   252  0014                     	;# 
   253  0015                     	;# 
   254  0015                     	;# 
   255  0016                     	;# 
   256  0017                     	;# 
   257  0018                     	;# 
   258  0019                     	;# 
   259  001A                     	;# 
   260  001B                     	;# 
   261  001B                     	;# 
   262  001C                     	;# 
   263  001D                     	;# 
   264  001E                     	;# 
   265  001F                     	;# 
   266  0081                     	;# 
   267  0085                     	;# 
   268  0086                     	;# 
   269  0087                     	;# 
   270  0088                     	;# 
   271  0089                     	;# 
   272  008C                     	;# 
   273  008D                     	;# 
   274  008E                     	;# 
   275  008F                     	;# 
   276  0090                     	;# 
   277  0091                     	;# 
   278  0092                     	;# 
   279  0093                     	;# 
   280  0093                     	;# 
   281  0093                     	;# 
   282  0094                     	;# 
   283  0095                     	;# 
   284  0096                     	;# 
   285  0097                     	;# 
   286  0098                     	;# 
   287  0099                     	;# 
   288  009A                     	;# 
   289  009B                     	;# 
   290  009C                     	;# 
   291  009D                     	;# 
   292  009E                     	;# 
   293  009F                     	;# 
   294  0105                     	;# 
   295  0107                     	;# 
   296  0108                     	;# 
   297  0109                     	;# 
   298  010C                     	;# 
   299  010C                     	;# 
   300  010D                     	;# 
   301  010E                     	;# 
   302  010F                     	;# 
   303  0185                     	;# 
   304  0187                     	;# 
   305  0188                     	;# 
   306  0189                     	;# 
   307  018C                     	;# 
   308  018D                     	;# 
   309  0000                     	;# 
   310  0001                     	;# 
   311  0002                     	;# 
   312  0003                     	;# 
   313  0004                     	;# 
   314  0005                     	;# 
   315  0006                     	;# 
   316  0007                     	;# 
   317  0008                     	;# 
   318  0009                     	;# 
   319  000A                     	;# 
   320  000B                     	;# 
   321  000C                     	;# 
   322  000D                     	;# 
   323  000E                     	;# 
   324  000E                     	;# 
   325  000F                     	;# 
   326  0010                     	;# 
   327  0011                     	;# 
   328  0012                     	;# 
   329  0013                     	;# 
   330  0014                     	;# 
   331  0015                     	;# 
   332  0015                     	;# 
   333  0016                     	;# 
   334  0017                     	;# 
   335  0018                     	;# 
   336  0019                     	;# 
   337  001A                     	;# 
   338  001B                     	;# 
   339  001B                     	;# 
   340  001C                     	;# 
   341  001D                     	;# 
   342  001E                     	;# 
   343  001F                     	;# 
   344  0081                     	;# 
   345  0085                     	;# 
   346  0086                     	;# 
   347  0087                     	;# 
   348  0088                     	;# 
   349  0089                     	;# 
   350  008C                     	;# 
   351  008D                     	;# 
   352  008E                     	;# 
   353  008F                     	;# 
   354  0090                     	;# 
   355  0091                     	;# 
   356  0092                     	;# 
   357  0093                     	;# 
   358  0093                     	;# 
   359  0093                     	;# 
   360  0094                     	;# 
   361  0095                     	;# 
   362  0096                     	;# 
   363  0097                     	;# 
   364  0098                     	;# 
   365  0099                     	;# 
   366  009A                     	;# 
   367  009B                     	;# 
   368  009C                     	;# 
   369  009D                     	;# 
   370  009E                     	;# 
   371  009F                     	;# 
   372  0105                     	;# 
   373  0107                     	;# 
   374  0108                     	;# 
   375  0109                     	;# 
   376  010C                     	;# 
   377  010C                     	;# 
   378  010D                     	;# 
   379  010E                     	;# 
   380  010F                     	;# 
   381  0185                     	;# 
   382  0187                     	;# 
   383  0188                     	;# 
   384  0189                     	;# 
   385  018C                     	;# 
   386  018D                     	;# 
   387  0000                     	;# 
   388  0001                     	;# 
   389  0002                     	;# 
   390  0003                     	;# 
   391  0004                     	;# 
   392  0005                     	;# 
   393  0006                     	;# 
   394  0007                     	;# 
   395  0008                     	;# 
   396  0009                     	;# 
   397  000A                     	;# 
   398  000B                     	;# 
   399  000C                     	;# 
   400  000D                     	;# 
   401  000E                     	;# 
   402  000E                     	;# 
   403  000F                     	;# 
   404  0010                     	;# 
   405  0011                     	;# 
   406  0012                     	;# 
   407  0013                     	;# 
   408  0014                     	;# 
   409  0015                     	;# 
   410  0015                     	;# 
   411  0016                     	;# 
   412  0017                     	;# 
   413  0018                     	;# 
   414  0019                     	;# 
   415  001A                     	;# 
   416  001B                     	;# 
   417  001B                     	;# 
   418  001C                     	;# 
   419  001D                     	;# 
   420  001E                     	;# 
   421  001F                     	;# 
   422  0081                     	;# 
   423  0085                     	;# 
   424  0086                     	;# 
   425  0087                     	;# 
   426  0088                     	;# 
   427  0089                     	;# 
   428  008C                     	;# 
   429  008D                     	;# 
   430  008E                     	;# 
   431  008F                     	;# 
   432  0090                     	;# 
   433  0091                     	;# 
   434  0092                     	;# 
   435  0093                     	;# 
   436  0093                     	;# 
   437  0093                     	;# 
   438  0094                     	;# 
   439  0095                     	;# 
   440  0096                     	;# 
   441  0097                     	;# 
   442  0098                     	;# 
   443  0099                     	;# 
   444  009A                     	;# 
   445  009B                     	;# 
   446  009C                     	;# 
   447  009D                     	;# 
   448  009E                     	;# 
   449  009F                     	;# 
   450  0105                     	;# 
   451  0107                     	;# 
   452  0108                     	;# 
   453  0109                     	;# 
   454  010C                     	;# 
   455  010C                     	;# 
   456  010D                     	;# 
   457  010E                     	;# 
   458  010F                     	;# 
   459  0185                     	;# 
   460  0187                     	;# 
   461  0188                     	;# 
   462  0189                     	;# 
   463  018C                     	;# 
   464  018D                     	;# 
   465  0009                     _PORTE	set	9
   466  0008                     _PORTD	set	8
   467  0007                     _PORTC	set	7
   468  0006                     _PORTB	set	6
   469  0005                     _PORTA	set	5
   470  0013                     _SSPBUF	set	19
   471  0014                     _SSPCON	set	20
   472  0043                     _RD3	set	67
   473  0042                     _RD2	set	66
   474  0047                     _RD7	set	71
   475  0063                     _SSPIF	set	99
   476  005E                     _PEIE	set	94
   477  005F                     _GIE	set	95
   478  008F                     _OSCCONbits	set	143
   479  0089                     _TRISE	set	137
   480  0088                     _TRISD	set	136
   481  0087                     _TRISC	set	135
   482  0086                     _TRISB	set	134
   483  0085                     _TRISA	set	133
   484  0091                     _SSPCON2bits	set	145
   485  0087                     _TRISCbits	set	135
   486  0094                     _SSPSTAT	set	148
   487  0093                     _SSPADD	set	147
   488  0091                     _SSPCON2	set	145
   489  0463                     _SSPIE	set	1123
   490  043C                     _TRISC4	set	1084
   491  043B                     _TRISC3	set	1083
   492  048B                     _RCEN	set	1163
   493                           
   494                           	psect	strings
   495  0800                     __pstrings:	
   496  0800                     stringtab:	
   497  0800                     __stringtab:	
   498                           
   499                           ;	String table - string pointers are 1 byte each
   500  0800  1BFF               	btfsc	btemp+1,7
   501  0801  280A               	ljmp	stringcode
   502  0802  1383               	bcf	3,7
   503  0803  187F               	btfsc	btemp+1,0
   504  0804  1783               	bsf	3,7
   505  0805  0800               	movf	0,w
   506  0806  0A84               	incf	4,f
   507  0807  1903               	skipnz
   508  0808  0AFF               	incf	btemp+1,f
   509  0809  0008               	return
   510  080A                     stringcode:	
   511  080A                     stringdir:	
   512  080A  3008               	movlw	high stringdir
   513  080B  008A               	movwf	10
   514  080C  0804               	movf	4,w
   515  080D  0A84               	incf	4,f
   516  080E  0782               	addwf	2,f
   517  080F                     __stringbase:	
   518  080F  3400               	retlw	0
   519  0810                     __end_of__stringtab:	
   520  0810                     STR_1:	
   521  0810  3441               	retlw	65	;'A'
   522  0811  3444               	retlw	68	;'D'
   523  0812  3443               	retlw	67	;'C'
   524  0813  3420               	retlw	32	;' '
   525  0814  3420               	retlw	32	;' '
   526  0815  3443               	retlw	67	;'C'
   527  0816  344F               	retlw	79	;'O'
   528  0817  344E               	retlw	78	;'N'
   529  0818  3454               	retlw	84	;'T'
   530  0819  342E               	retlw	46	;'.'
   531  081A  3420               	retlw	32	;' '
   532  081B  3420               	retlw	32	;' '
   533  081C  3446               	retlw	70	;'F'
   534  081D  344F               	retlw	79	;'O'
   535  081E  3454               	retlw	84	;'T'
   536  081F  344F               	retlw	79	;'O'
   537  0820  342E               	retlw	46	;'.'
   538  0821  3400               	retlw	0
   539  0820                     
   540                           ; #config settings
   541  0000                     
   542                           	psect	cinit
   543  07EB                     start_initialization:	
   544  07EB                     __initialization:	
   545                           
   546                           ; Clear objects allocated to BANK0
   547  07EB  1383               	bcf	3,7	;select IRP bank0
   548  07EC  3058               	movlw	low __pbssBANK0
   549  07ED  0084               	movwf	4
   550  07EE  306F               	movlw	low (__pbssBANK0+23)
   551  07EF  120A  158A  23AC  120A  118A  	fcall	clear_ram0
   552                           
   553                           ; Clear objects allocated to BANK1
   554  07F4  30A0               	movlw	low __pbssBANK1
   555  07F5  0084               	movwf	4
   556  07F6  30AA               	movlw	low (__pbssBANK1+10)
   557  07F7  120A  158A  23AC  120A  118A  	fcall	clear_ram0
   558  07FC                     end_of_initialization:	
   559                           ;End of C runtime variable initialization code
   560                           
   561  07FC                     __end_of__initialization:	
   562  07FC  0183               	clrf	3
   563  07FD  120A  118A  291F   	ljmp	_main	;jump to C main() function
   564                           
   565                           	psect	bssBANK0
   566  0058                     __pbssBANK0:	
   567  0058                     _voltaje:	
   568  0058                     	ds	4
   569  005C                     _POT1C:	
   570  005C                     	ds	2
   571  005E                     _POT1B:	
   572  005E                     	ds	2
   573  0060                     _POT1A:	
   574  0060                     	ds	2
   575  0062                     _V1:	
   576  0062                     	ds	2
   577  0064                     _ADC:	
   578  0064                     	ds	1
   579  0065                     _POT1SC:	
   580  0065                     	ds	5
   581  006A                     _POT1SB:	
   582  006A                     	ds	5
   583                           
   584                           	psect	bssBANK1
   585  00A0                     __pbssBANK1:	
   586  00A0                     _PUNTO1:	
   587  00A0                     	ds	5
   588  00A5                     _POT1SA:	
   589  00A5                     	ds	5
   590                           
   591                           	psect	clrtext
   592  0BAC                     clear_ram0:	
   593                           ;	Called with FSR containing the base address, and
   594                           ;	W with the last address+1
   595                           
   596  0BAC  0064               	clrwdt	;clear the watchdog before getting into this loop
   597  0BAD                     clrloop0:	
   598  0BAD  0180               	clrf	0	;clear RAM location pointed to by FSR
   599  0BAE  0A84               	incf	4,f	;increment pointer
   600  0BAF  0604               	xorwf	4,w	;XOR with final address
   601  0BB0  1903               	btfsc	3,2	;have we reached the end yet?
   602  0BB1  3400               	retlw	0	;all done for this memory range, return
   603  0BB2  0604               	xorwf	4,w	;XOR again to restore value
   604  0BB3  2BAD               	goto	clrloop0	;do the next byte
   605                           
   606                           	psect	cstackCOMMON
   607  0070                     __pcstackCOMMON:	
   608  0070                     ?_SETUP:	
   609  0070                     ??_SETUP:	
   610                           ; 1 bytes @ 0x0
   611                           
   612  0070                     ?_initOsc:	
   613                           ; 1 bytes @ 0x0
   614                           
   615  0070                     ??_initOsc:	
   616                           ; 1 bytes @ 0x0
   617                           
   618  0070                     ?_strcat:	
   619                           ; 1 bytes @ 0x0
   620                           
   621  0070                     ?_strcpy:	
   622                           ; 1 bytes @ 0x0
   623                           
   624  0070                     ?_lcd_cmd:	
   625                           ; 1 bytes @ 0x0
   626                           
   627  0070                     ?_lcd_ready:	
   628                           ; 1 bytes @ 0x0
   629                           
   630  0070                     ??_lcd_ready:	
   631                           ; 1 bytes @ 0x0
   632                           
   633  0070                     ?_lcd_lat:	
   634                           ; 1 bytes @ 0x0
   635                           
   636  0070                     ??_lcd_lat:	
   637                           ; 1 bytes @ 0x0
   638                           
   639  0070                     ?_I2C_Master_Wait:	
   640                           ; 1 bytes @ 0x0
   641                           
   642  0070                     ??_I2C_Master_Wait:	
   643                           ; 1 bytes @ 0x0
   644                           
   645  0070                     ?_I2C_Master_Start:	
   646                           ; 1 bytes @ 0x0
   647                           
   648  0070                     ??_I2C_Master_Start:	
   649                           ; 1 bytes @ 0x0
   650                           
   651  0070                     ?_I2C_Master_Stop:	
   652                           ; 1 bytes @ 0x0
   653                           
   654  0070                     ??_I2C_Master_Stop:	
   655                           ; 1 bytes @ 0x0
   656                           
   657  0070                     ?_I2C_Master_Write:	
   658                           ; 1 bytes @ 0x0
   659                           
   660  0070                     ?_main:	
   661                           ; 1 bytes @ 0x0
   662                           
   663  0070                     ?_lcd_dwr:	
   664                           ; 1 bytes @ 0x0
   665                           
   666  0070                     ?__Umul8_16:	
   667                           ; 1 bytes @ 0x0
   668                           
   669  0070                     ?_I2C_Master_Read:	
   670                           ; 2 bytes @ 0x0
   671                           
   672  0070                     ?___awdiv:	
   673                           ; 2 bytes @ 0x0
   674                           
   675  0070                     ?___lwdiv:	
   676                           ; 2 bytes @ 0x0
   677                           
   678  0070                     ?___lwmod:	
   679                           ; 2 bytes @ 0x0
   680                           
   681  0070                     ?___lldiv:	
   682                           ; 2 bytes @ 0x0
   683                           
   684  0070                     ?___xxtofl:	
   685                           ; 4 bytes @ 0x0
   686                           
   687  0070                     strcat@from:	
   688                           ; 4 bytes @ 0x0
   689                           
   690  0070                     strcpy@from:	
   691                           ; 1 bytes @ 0x0
   692                           
   693  0070                     __Umul8_16@multiplicand:	
   694                           ; 1 bytes @ 0x0
   695                           
   696  0070                     I2C_Master_Write@d:	
   697                           ; 1 bytes @ 0x0
   698                           
   699  0070                     I2C_Master_Read@a:	
   700                           ; 2 bytes @ 0x0
   701                           
   702  0070                     ___awdiv@divisor:	
   703                           ; 2 bytes @ 0x0
   704                           
   705  0070                     ___lwdiv@divisor:	
   706                           ; 2 bytes @ 0x0
   707                           
   708  0070                     ___lwmod@divisor:	
   709                           ; 2 bytes @ 0x0
   710                           
   711  0070                     ___lldiv@divisor:	
   712                           ; 2 bytes @ 0x0
   713                           
   714  0070                     ___xxtofl@val:	
   715                           ; 4 bytes @ 0x0
   716                           
   717                           
   718                           ; 4 bytes @ 0x0
   719  0070                     	ds	1
   720  0071                     ??_strcat:	
   721  0071                     ??_strcpy:	
   722                           ; 1 bytes @ 0x1
   723                           
   724                           
   725                           ; 1 bytes @ 0x1
   726  0071                     	ds	1
   727  0072                     ??_lcd_cmd:	
   728  0072                     ??__Umul8_16:	
   729                           ; 1 bytes @ 0x2
   730                           
   731  0072                     ??_I2C_Master_Write:	
   732                           ; 1 bytes @ 0x2
   733                           
   734  0072                     ??_I2C_Master_Read:	
   735                           ; 1 bytes @ 0x2
   736                           
   737  0072                     ??_lcd_dwr:	
   738                           ; 1 bytes @ 0x2
   739                           
   740  0072                     initOsc@frec:	
   741                           ; 1 bytes @ 0x2
   742                           
   743  0072                     lcd_cmd@x:	
   744                           ; 1 bytes @ 0x2
   745                           
   746  0072                     lcd_dwr@x:	
   747                           ; 1 bytes @ 0x2
   748                           
   749  0072                     strcat@to:	
   750                           ; 1 bytes @ 0x2
   751                           
   752  0072                     strcpy@to:	
   753                           ; 1 bytes @ 0x2
   754                           
   755  0072                     ___awdiv@dividend:	
   756                           ; 1 bytes @ 0x2
   757                           
   758  0072                     ___lwdiv@dividend:	
   759                           ; 2 bytes @ 0x2
   760                           
   761  0072                     ___lwmod@dividend:	
   762                           ; 2 bytes @ 0x2
   763                           
   764                           
   765                           ; 2 bytes @ 0x2
   766  0072                     	ds	1
   767  0073                     ?_lcd_msg:	
   768  0073                     strcat@cp:	
   769                           ; 1 bytes @ 0x3
   770                           
   771  0073                     strcpy@cp:	
   772                           ; 1 bytes @ 0x3
   773                           
   774  0073                     lcd_msg@c:	
   775                           ; 1 bytes @ 0x3
   776                           
   777                           
   778                           ; 2 bytes @ 0x3
   779  0073                     	ds	1
   780  0074                     ??___awdiv:	
   781  0074                     ??___lwdiv:	
   782                           ; 1 bytes @ 0x4
   783                           
   784  0074                     ??___lwmod:	
   785                           ; 1 bytes @ 0x4
   786                           
   787  0074                     ??___xxtofl:	
   788                           ; 1 bytes @ 0x4
   789                           
   790  0074                     I2C_Master_Read@temp:	
   791                           ; 1 bytes @ 0x4
   792                           
   793  0074                     __Umul8_16@product:	
   794                           ; 2 bytes @ 0x4
   795                           
   796  0074                     ___lldiv@dividend:	
   797                           ; 2 bytes @ 0x4
   798                           
   799                           
   800                           ; 4 bytes @ 0x4
   801  0074                     	ds	1
   802  0075                     ??_lcd_msg:	
   803  0075                     ___awdiv@counter:	
   804                           ; 1 bytes @ 0x5
   805                           
   806  0075                     ___lwmod@counter:	
   807                           ; 1 bytes @ 0x5
   808                           
   809  0075                     ___lwdiv@quotient:	
   810                           ; 1 bytes @ 0x5
   811                           
   812                           
   813                           ; 2 bytes @ 0x5
   814  0075                     	ds	1
   815  0076                     ___awdiv@sign:	
   816  0076                     __Umul8_16@word_mpld:	
   817                           ; 1 bytes @ 0x6
   818                           
   819                           
   820                           ; 2 bytes @ 0x6
   821  0076                     	ds	1
   822  0077                     ___lwdiv@counter:	
   823  0077                     ___awdiv@quotient:	
   824                           ; 1 bytes @ 0x7
   825                           
   826                           
   827                           ; 2 bytes @ 0x7
   828  0077                     	ds	1
   829  0078                     ?_utoa:	
   830  0078                     ??___lldiv:	
   831                           ; 1 bytes @ 0x8
   832                           
   833  0078                     ___xxtofl@sign:	
   834                           ; 1 bytes @ 0x8
   835                           
   836  0078                     __Umul8_16@multiplier:	
   837                           ; 1 bytes @ 0x8
   838                           
   839  0078                     utoa@val:	
   840                           ; 1 bytes @ 0x8
   841                           
   842                           
   843                           ; 2 bytes @ 0x8
   844  0078                     	ds	1
   845  0079                     ?___awmod:	
   846  0079                     ___xxtofl@exp:	
   847                           ; 2 bytes @ 0x9
   848                           
   849  0079                     ___awmod@divisor:	
   850                           ; 1 bytes @ 0x9
   851                           
   852  0079                     ___lldiv@quotient:	
   853                           ; 2 bytes @ 0x9
   854                           
   855                           
   856                           ; 4 bytes @ 0x9
   857  0079                     	ds	1
   858  007A                     utoa@base:	
   859  007A                     ___xxtofl@arg:	
   860                           ; 2 bytes @ 0xA
   861                           
   862                           
   863                           ; 4 bytes @ 0xA
   864  007A                     	ds	1
   865  007B                     ___awmod@dividend:	
   866                           
   867                           ; 2 bytes @ 0xB
   868  007B                     	ds	1
   869  007C                     ??_utoa:	
   870                           
   871                           ; 1 bytes @ 0xC
   872  007C                     	ds	1
   873  007D                     ??_itoa:	
   874  007D                     ??___awmod:	
   875                           ; 1 bytes @ 0xD
   876                           
   877  007D                     ___lldiv@counter:	
   878                           ; 1 bytes @ 0xD
   879                           
   880                           
   881                           ; 1 bytes @ 0xD
   882  007D                     	ds	1
   883                           
   884                           	psect	cstackBANK0
   885  0020                     __pcstackBANK0:	
   886  0020                     ?_I2C_INIT:	
   887  0020                     ?___flmul:	
   888                           ; 1 bytes @ 0x0
   889                           
   890  0020                     ___awmod@counter:	
   891                           ; 4 bytes @ 0x0
   892                           
   893  0020                     utoa@v:	
   894                           ; 1 bytes @ 0x0
   895                           
   896  0020                     I2C_INIT@c:	
   897                           ; 2 bytes @ 0x0
   898                           
   899  0020                     ___flmul@b:	
   900                           ; 4 bytes @ 0x0
   901                           
   902                           
   903                           ; 4 bytes @ 0x0
   904  0020                     	ds	1
   905  0021                     ___awmod@sign:	
   906                           
   907                           ; 1 bytes @ 0x1
   908  0021                     	ds	1
   909  0022                     utoa@c:	
   910                           
   911                           ; 1 bytes @ 0x2
   912  0022                     	ds	1
   913  0023                     utoa@buf:	
   914                           
   915                           ; 1 bytes @ 0x3
   916  0023                     	ds	1
   917  0024                     ?_itoa:	
   918  0024                     ??_I2C_INIT:	
   919                           ; 1 bytes @ 0x4
   920                           
   921  0024                     itoa@val:	
   922                           ; 1 bytes @ 0x4
   923                           
   924  0024                     ___flmul@a:	
   925                           ; 2 bytes @ 0x4
   926                           
   927                           
   928                           ; 4 bytes @ 0x4
   929  0024                     	ds	2
   930  0026                     itoa@base:	
   931                           
   932                           ; 2 bytes @ 0x6
   933  0026                     	ds	2
   934  0028                     ??___flmul:	
   935                           
   936                           ; 1 bytes @ 0x8
   937  0028                     	ds	1
   938  0029                     itoa@buf:	
   939                           
   940                           ; 1 bytes @ 0x9
   941  0029                     	ds	4
   942  002D                     ___flmul@sign:	
   943                           
   944                           ; 1 bytes @ 0xD
   945  002D                     	ds	1
   946  002E                     ___flmul@grs:	
   947                           
   948                           ; 4 bytes @ 0xE
   949  002E                     	ds	4
   950  0032                     ___flmul@aexp:	
   951                           
   952                           ; 1 bytes @ 0x12
   953  0032                     	ds	1
   954  0033                     ___flmul@bexp:	
   955                           
   956                           ; 1 bytes @ 0x13
   957  0033                     	ds	1
   958  0034                     ___flmul@prod:	
   959                           
   960                           ; 4 bytes @ 0x14
   961  0034                     	ds	4
   962  0038                     ___flmul@temp:	
   963                           
   964                           ; 2 bytes @ 0x18
   965  0038                     	ds	2
   966  003A                     ?___fltol:	
   967  003A                     ?___fldiv:	
   968                           ; 4 bytes @ 0x1A
   969                           
   970  003A                     ___fltol@f1:	
   971                           ; 4 bytes @ 0x1A
   972                           
   973  003A                     ___fldiv@a:	
   974                           ; 4 bytes @ 0x1A
   975                           
   976                           
   977                           ; 4 bytes @ 0x1A
   978  003A                     	ds	4
   979  003E                     ??___fltol:	
   980  003E                     ___fldiv@b:	
   981                           ; 1 bytes @ 0x1E
   982                           
   983                           
   984                           ; 4 bytes @ 0x1E
   985  003E                     	ds	4
   986  0042                     ??___fldiv:	
   987                           
   988                           ; 1 bytes @ 0x22
   989  0042                     	ds	1
   990  0043                     ___fltol@sign1:	
   991                           
   992                           ; 1 bytes @ 0x23
   993  0043                     	ds	1
   994  0044                     ___fltol@exp1:	
   995                           
   996                           ; 1 bytes @ 0x24
   997  0044                     	ds	3
   998  0047                     ___fldiv@rem:	
   999                           
  1000                           ; 4 bytes @ 0x27
  1001  0047                     	ds	4
  1002  004B                     ___fldiv@sign:	
  1003                           
  1004                           ; 1 bytes @ 0x2B
  1005  004B                     	ds	1
  1006  004C                     ___fldiv@new_exp:	
  1007                           
  1008                           ; 2 bytes @ 0x2C
  1009  004C                     	ds	2
  1010  004E                     ___fldiv@grs:	
  1011                           
  1012                           ; 4 bytes @ 0x2E
  1013  004E                     	ds	4
  1014  0052                     ___fldiv@bexp:	
  1015                           
  1016                           ; 1 bytes @ 0x32
  1017  0052                     	ds	1
  1018  0053                     ___fldiv@aexp:	
  1019                           
  1020                           ; 1 bytes @ 0x33
  1021  0053                     	ds	1
  1022  0054                     ??_main:	
  1023                           
  1024                           ; 1 bytes @ 0x34
  1025  0054                     	ds	4
  1026                           
  1027                           	psect	maintext
  1028  011F                     __pmaintext:	
  1029 ;;
  1030 ;;Main: autosize = 0, tempsize = 4, incstack = 0, save=0
  1031 ;;
  1032 ;; *************** function _main *****************
  1033 ;; Defined at:
  1034 ;;		line 58 in file "Lab5_MASTER.c"
  1035 ;; Parameters:    Size  Location     Type
  1036 ;;		None
  1037 ;; Auto vars:     Size  Location     Type
  1038 ;;		None
  1039 ;; Return value:  Size  Location     Type
  1040 ;;                  1    wreg      void 
  1041 ;; Registers used:
  1042 ;;		wreg, fsr0l, fsr0h, status,2, status,0, btemp+1, pclath, cstack
  1043 ;; Tracked objects:
  1044 ;;		On entry : B00/0
  1045 ;;		On exit  : 0/0
  1046 ;;		Unchanged: 0/0
  1047 ;; Data sizes:     COMMON   BANK0   BANK1   BANK3   BANK2
  1048 ;;      Params:         0       0       0       0       0
  1049 ;;      Locals:         0       0       0       0       0
  1050 ;;      Temps:          0       4       0       0       0
  1051 ;;      Totals:         0       4       0       0       0
  1052 ;;Total ram usage:        4 bytes
  1053 ;; Hardware stack levels required when called:    3
  1054 ;; This function calls:
  1055 ;;		_I2C_INIT
  1056 ;;		_I2C_Master_Read
  1057 ;;		_I2C_Master_Start
  1058 ;;		_I2C_Master_Stop
  1059 ;;		_I2C_Master_Write
  1060 ;;		_SETUP
  1061 ;;		___awdiv
  1062 ;;		___awmod
  1063 ;;		___fldiv
  1064 ;;		___flmul
  1065 ;;		___fltol
  1066 ;;		___xxtofl
  1067 ;;		_initOsc
  1068 ;;		_itoa
  1069 ;;		_lcd_cmd
  1070 ;;		_lcd_msg
  1071 ;;		_strcat
  1072 ;;		_strcpy
  1073 ;; This function is called by:
  1074 ;;		Startup code after reset
  1075 ;; This function uses a non-reentrant model
  1076 ;;
  1077                           
  1078                           
  1079                           ;psect for function _main
  1080  011F                     _main:	
  1081  011F                     l2330:	
  1082                           ;incstack = 0
  1083                           ; Regs used in _main: [wreg-fsr0h+status,2+status,0+btemp+1+pclath+cstack]
  1084                           
  1085                           
  1086                           ;Lab5_MASTER.c: 59:     SETUP();
  1087  011F  120A  158A  23EC  120A  118A  	fcall	_SETUP
  1088  0124                     l2332:	
  1089                           
  1090                           ;Lab5_MASTER.c: 60:     initOsc(6);
  1091  0124  3006               	movlw	6
  1092  0125  120A  118A  2009  120A  118A  	fcall	_initOsc
  1093  012A                     l2334:	
  1094                           
  1095                           ;Lab5_MASTER.c: 61:     I2C_INIT(100000);
  1096  012A  3000               	movlw	0
  1097  012B  1283               	bcf	3,5	;RP0=0, select bank0
  1098  012C  1303               	bcf	3,6	;RP1=0, select bank0
  1099  012D  00A3               	movwf	I2C_INIT@c+3
  1100  012E  3001               	movlw	1
  1101  012F  00A2               	movwf	I2C_INIT@c+2
  1102  0130  3086               	movlw	134
  1103  0131  00A1               	movwf	I2C_INIT@c+1
  1104  0132  30A0               	movlw	160
  1105  0133  00A0               	movwf	I2C_INIT@c
  1106  0134  120A  158A  2534  120A  118A  	fcall	_I2C_INIT
  1107  0139                     l2336:	
  1108                           
  1109                           ;Lab5_MASTER.c: 62:     lcd_msg("ADC  CONT.  FOTO.");
  1110  0139  3001               	movlw	(low ((STR_1-__stringbase)| (0+32768)))& (0+255)
  1111  013A  00F3               	movwf	lcd_msg@c
  1112  013B  3080               	movlw	128
  1113  013C  00F4               	movwf	lcd_msg@c+1
  1114  013D  120A  158A  2467  120A  118A  	fcall	_lcd_msg
  1115  0142                     l2338:	
  1116                           
  1117                           ;Lab5_MASTER.c: 64:         I2C_Master_Start();
  1118  0142  120A  158A  23B4  120A  118A  	fcall	_I2C_Master_Start
  1119  0147                     l2340:	
  1120                           
  1121                           ;Lab5_MASTER.c: 65:         I2C_Master_Write(0x21);
  1122  0147  3021               	movlw	33
  1123  0148  00F0               	movwf	I2C_Master_Write@d
  1124  0149  3000               	movlw	0
  1125  014A  00F1               	movwf	I2C_Master_Write@d+1
  1126  014B  120A  158A  23C6  120A  118A  	fcall	_I2C_Master_Write
  1127  0150                     l2342:	
  1128                           
  1129                           ;Lab5_MASTER.c: 66:         ADC = I2C_Master_Read(0);
  1130  0150  3000               	movlw	0
  1131  0151  00F0               	movwf	I2C_Master_Read@a
  1132  0152  00F1               	movwf	I2C_Master_Read@a+1
  1133  0153  120A  158A  2506  120A  118A  	fcall	_I2C_Master_Read
  1134  0158  0870               	movf	?_I2C_Master_Read,w
  1135  0159  1283               	bcf	3,5	;RP0=0, select bank0
  1136  015A  1303               	bcf	3,6	;RP1=0, select bank0
  1137  015B  00D4               	movwf	??_main
  1138  015C  0854               	movf	??_main,w
  1139  015D  00E4               	movwf	_ADC
  1140  015E                     l2344:	
  1141                           
  1142                           ;Lab5_MASTER.c: 67:         I2C_Master_Stop();
  1143  015E  120A  158A  23BD  120A  118A  	fcall	_I2C_Master_Stop
  1144  0163                     l2346:	
  1145                           
  1146                           ;Lab5_MASTER.c: 68:         _delay((unsigned long)((200)*(4000000/4000.0)));
  1147  0163  3002               	movlw	2
  1148  0164  1283               	bcf	3,5	;RP0=0, select bank0
  1149  0165  1303               	bcf	3,6	;RP1=0, select bank0
  1150  0166  00D6               	movwf	??_main+2
  1151  0167  3004               	movlw	4
  1152  0168  00D5               	movwf	??_main+1
  1153  0169  30B9               	movlw	185
  1154  016A  00D4               	movwf	??_main
  1155  016B                     u2917:	
  1156  016B  0BD4               	decfsz	??_main,f
  1157  016C  296B               	goto	u2917
  1158  016D  0BD5               	decfsz	??_main+1,f
  1159  016E  296B               	goto	u2917
  1160  016F  0BD6               	decfsz	??_main+2,f
  1161  0170  296B               	goto	u2917
  1162  0171  2972               	nop2
  1163  0172                     l2348:	
  1164                           
  1165                           ;Lab5_MASTER.c: 69:         voltaje = (ADC*5.0)/255.0;
  1166  0172  3043               	movlw	67
  1167  0173  1283               	bcf	3,5	;RP0=0, select bank0
  1168  0174  1303               	bcf	3,6	;RP1=0, select bank0
  1169  0175  00BD               	movwf	___fldiv@a+3
  1170  0176  307F               	movlw	127
  1171  0177  00BC               	movwf	___fldiv@a+2
  1172  0178  3000               	movlw	0
  1173  0179  00BB               	movwf	___fldiv@a+1
  1174  017A  3000               	movlw	0
  1175  017B  00BA               	movwf	___fldiv@a
  1176  017C  3040               	movlw	64
  1177  017D  00A3               	movwf	___flmul@b+3
  1178  017E  30A0               	movlw	160
  1179  017F  00A2               	movwf	___flmul@b+2
  1180  0180  3000               	movlw	0
  1181  0181  00A1               	movwf	___flmul@b+1
  1182  0182  3000               	movlw	0
  1183  0183  00A0               	movwf	___flmul@b
  1184  0184  0864               	movf	_ADC,w
  1185  0185  00D4               	movwf	??_main
  1186  0186  01D5               	clrf	??_main+1
  1187  0187  01D6               	clrf	??_main+2
  1188  0188  01D7               	clrf	??_main+3
  1189  0189  0857               	movf	??_main+3,w
  1190  018A  00F3               	movwf	___xxtofl@val+3
  1191  018B  0856               	movf	??_main+2,w
  1192  018C  00F2               	movwf	___xxtofl@val+2
  1193  018D  0855               	movf	??_main+1,w
  1194  018E  00F1               	movwf	___xxtofl@val+1
  1195  018F  0854               	movf	??_main,w
  1196  0190  00F0               	movwf	___xxtofl@val
  1197  0191  3001               	movlw	1
  1198  0192  120A  118A  2065  120A  118A  	fcall	___xxtofl
  1199  0197  0873               	movf	?___xxtofl+3,w
  1200  0198  1283               	bcf	3,5	;RP0=0, select bank0
  1201  0199  1303               	bcf	3,6	;RP1=0, select bank0
  1202  019A  00A7               	movwf	___flmul@a+3
  1203  019B  0872               	movf	?___xxtofl+2,w
  1204  019C  00A6               	movwf	___flmul@a+2
  1205  019D  0871               	movf	?___xxtofl+1,w
  1206  019E  00A5               	movwf	___flmul@a+1
  1207  019F  0870               	movf	?___xxtofl,w
  1208  01A0  00A4               	movwf	___flmul@a
  1209  01A1  120A  118A  248A  120A  118A  	fcall	___flmul
  1210  01A6  1283               	bcf	3,5	;RP0=0, select bank0
  1211  01A7  1303               	bcf	3,6	;RP1=0, select bank0
  1212  01A8  0823               	movf	?___flmul+3,w
  1213  01A9  00C1               	movwf	___fldiv@b+3
  1214  01AA  0822               	movf	?___flmul+2,w
  1215  01AB  00C0               	movwf	___fldiv@b+2
  1216  01AC  0821               	movf	?___flmul+1,w
  1217  01AD  00BF               	movwf	___fldiv@b+1
  1218  01AE  0820               	movf	?___flmul,w
  1219  01AF  00BE               	movwf	___fldiv@b
  1220  01B0  120A  118A  22AD  120A  118A  	fcall	___fldiv
  1221  01B5  1283               	bcf	3,5	;RP0=0, select bank0
  1222  01B6  1303               	bcf	3,6	;RP1=0, select bank0
  1223  01B7  083D               	movf	?___fldiv+3,w
  1224  01B8  00DB               	movwf	_voltaje+3
  1225  01B9  083C               	movf	?___fldiv+2,w
  1226  01BA  00DA               	movwf	_voltaje+2
  1227  01BB  083B               	movf	?___fldiv+1,w
  1228  01BC  00D9               	movwf	_voltaje+1
  1229  01BD  083A               	movf	?___fldiv,w
  1230  01BE  00D8               	movwf	_voltaje
  1231  01BF                     l2350:	
  1232                           
  1233                           ;Lab5_MASTER.c: 70:         V1 = (voltaje)*100;
  1234  01BF  085B               	movf	_voltaje+3,w
  1235  01C0  00A7               	movwf	___flmul@a+3
  1236  01C1  085A               	movf	_voltaje+2,w
  1237  01C2  00A6               	movwf	___flmul@a+2
  1238  01C3  0859               	movf	_voltaje+1,w
  1239  01C4  00A5               	movwf	___flmul@a+1
  1240  01C5  0858               	movf	_voltaje,w
  1241  01C6  00A4               	movwf	___flmul@a
  1242  01C7  3042               	movlw	66
  1243  01C8  00A3               	movwf	___flmul@b+3
  1244  01C9  30C8               	movlw	200
  1245  01CA  00A2               	movwf	___flmul@b+2
  1246  01CB  3000               	movlw	0
  1247  01CC  00A1               	movwf	___flmul@b+1
  1248  01CD  3000               	movlw	0
  1249  01CE  00A0               	movwf	___flmul@b
  1250  01CF  120A  118A  248A  120A  118A  	fcall	___flmul
  1251  01D4  1283               	bcf	3,5	;RP0=0, select bank0
  1252  01D5  1303               	bcf	3,6	;RP1=0, select bank0
  1253  01D6  0823               	movf	?___flmul+3,w
  1254  01D7  00BD               	movwf	___fltol@f1+3
  1255  01D8  0822               	movf	?___flmul+2,w
  1256  01D9  00BC               	movwf	___fltol@f1+2
  1257  01DA  0821               	movf	?___flmul+1,w
  1258  01DB  00BB               	movwf	___fltol@f1+1
  1259  01DC  0820               	movf	?___flmul,w
  1260  01DD  00BA               	movwf	___fltol@f1
  1261  01DE  120A  158A  2784  120A  118A  	fcall	___fltol
  1262  01E3  1283               	bcf	3,5	;RP0=0, select bank0
  1263  01E4  1303               	bcf	3,6	;RP1=0, select bank0
  1264  01E5  083B               	movf	?___fltol+1,w
  1265  01E6  00E3               	movwf	_V1+1
  1266  01E7  083A               	movf	?___fltol,w
  1267  01E8  00E2               	movwf	_V1
  1268  01E9                     l2352:	
  1269                           
  1270                           ;Lab5_MASTER.c: 71:         POT1A = V1%10;
  1271  01E9  300A               	movlw	10
  1272  01EA  00F9               	movwf	___awmod@divisor
  1273  01EB  3000               	movlw	0
  1274  01EC  00FA               	movwf	___awmod@divisor+1
  1275  01ED  0863               	movf	_V1+1,w
  1276  01EE  00FC               	movwf	___awmod@dividend+1
  1277  01EF  0862               	movf	_V1,w
  1278  01F0  00FB               	movwf	___awmod@dividend
  1279  01F1  120A  158A  25EA  120A  118A  	fcall	___awmod
  1280  01F6  087A               	movf	?___awmod+1,w
  1281  01F7  1283               	bcf	3,5	;RP0=0, select bank0
  1282  01F8  1303               	bcf	3,6	;RP1=0, select bank0
  1283  01F9  00E1               	movwf	_POT1A+1
  1284  01FA  0879               	movf	?___awmod,w
  1285  01FB  00E0               	movwf	_POT1A
  1286  01FC                     l2354:	
  1287                           
  1288                           ;Lab5_MASTER.c: 72:         itoa(POT1SA,POT1A,10);
  1289  01FC  0861               	movf	_POT1A+1,w
  1290  01FD  00A5               	movwf	itoa@val+1
  1291  01FE  0860               	movf	_POT1A,w
  1292  01FF  00A4               	movwf	itoa@val
  1293  0200  300A               	movlw	10
  1294  0201  00A6               	movwf	itoa@base
  1295  0202  3000               	movlw	0
  1296  0203  00A7               	movwf	itoa@base+1
  1297  0204  30A5               	movlw	(low (_POT1SA| 0))& (0+255)
  1298  0205  120A  158A  2441  120A  118A  	fcall	_itoa
  1299  020A                     l2356:	
  1300                           
  1301                           ;Lab5_MASTER.c: 73:         POT1B = (V1/10)%10;
  1302  020A  300A               	movlw	10
  1303  020B  00F9               	movwf	___awmod@divisor
  1304  020C  3000               	movlw	0
  1305  020D  00FA               	movwf	___awmod@divisor+1
  1306  020E  300A               	movlw	10
  1307  020F  00F0               	movwf	___awdiv@divisor
  1308  0210  3000               	movlw	0
  1309  0211  00F1               	movwf	___awdiv@divisor+1
  1310  0212  1283               	bcf	3,5	;RP0=0, select bank0
  1311  0213  1303               	bcf	3,6	;RP1=0, select bank0
  1312  0214  0863               	movf	_V1+1,w
  1313  0215  00F3               	movwf	___awdiv@dividend+1
  1314  0216  0862               	movf	_V1,w
  1315  0217  00F2               	movwf	___awdiv@dividend
  1316  0218  120A  158A  26AB  120A  118A  	fcall	___awdiv
  1317  021D  0871               	movf	?___awdiv+1,w
  1318  021E  00FC               	movwf	___awmod@dividend+1
  1319  021F  0870               	movf	?___awdiv,w
  1320  0220  00FB               	movwf	___awmod@dividend
  1321  0221  120A  158A  25EA  120A  118A  	fcall	___awmod
  1322  0226  087A               	movf	?___awmod+1,w
  1323  0227  1283               	bcf	3,5	;RP0=0, select bank0
  1324  0228  1303               	bcf	3,6	;RP1=0, select bank0
  1325  0229  00DF               	movwf	_POT1B+1
  1326  022A  0879               	movf	?___awmod,w
  1327  022B  00DE               	movwf	_POT1B
  1328  022C                     l2358:	
  1329                           
  1330                           ;Lab5_MASTER.c: 74:         itoa(POT1SB,POT1B,10);
  1331  022C  085F               	movf	_POT1B+1,w
  1332  022D  00A5               	movwf	itoa@val+1
  1333  022E  085E               	movf	_POT1B,w
  1334  022F  00A4               	movwf	itoa@val
  1335  0230  300A               	movlw	10
  1336  0231  00A6               	movwf	itoa@base
  1337  0232  3000               	movlw	0
  1338  0233  00A7               	movwf	itoa@base+1
  1339  0234  306A               	movlw	(low (_POT1SB| 0))& (0+255)
  1340  0235  120A  158A  2441  120A  118A  	fcall	_itoa
  1341  023A                     l2360:	
  1342                           
  1343                           ;Lab5_MASTER.c: 75:         POT1C = (V1/100)%10;
  1344  023A  300A               	movlw	10
  1345  023B  00F9               	movwf	___awmod@divisor
  1346  023C  3000               	movlw	0
  1347  023D  00FA               	movwf	___awmod@divisor+1
  1348  023E  3064               	movlw	100
  1349  023F  00F0               	movwf	___awdiv@divisor
  1350  0240  3000               	movlw	0
  1351  0241  00F1               	movwf	___awdiv@divisor+1
  1352  0242  1283               	bcf	3,5	;RP0=0, select bank0
  1353  0243  1303               	bcf	3,6	;RP1=0, select bank0
  1354  0244  0863               	movf	_V1+1,w
  1355  0245  00F3               	movwf	___awdiv@dividend+1
  1356  0246  0862               	movf	_V1,w
  1357  0247  00F2               	movwf	___awdiv@dividend
  1358  0248  120A  158A  26AB  120A  118A  	fcall	___awdiv
  1359  024D  0871               	movf	?___awdiv+1,w
  1360  024E  00FC               	movwf	___awmod@dividend+1
  1361  024F  0870               	movf	?___awdiv,w
  1362  0250  00FB               	movwf	___awmod@dividend
  1363  0251  120A  158A  25EA  120A  118A  	fcall	___awmod
  1364  0256  087A               	movf	?___awmod+1,w
  1365  0257  1283               	bcf	3,5	;RP0=0, select bank0
  1366  0258  1303               	bcf	3,6	;RP1=0, select bank0
  1367  0259  00DD               	movwf	_POT1C+1
  1368  025A  0879               	movf	?___awmod,w
  1369  025B  00DC               	movwf	_POT1C
  1370  025C                     l2362:	
  1371                           
  1372                           ;Lab5_MASTER.c: 76:         itoa(POT1SC,POT1C,10);
  1373  025C  085D               	movf	_POT1C+1,w
  1374  025D  00A5               	movwf	itoa@val+1
  1375  025E  085C               	movf	_POT1C,w
  1376  025F  00A4               	movwf	itoa@val
  1377  0260  300A               	movlw	10
  1378  0261  00A6               	movwf	itoa@base
  1379  0262  3000               	movlw	0
  1380  0263  00A7               	movwf	itoa@base+1
  1381  0264  3065               	movlw	(low (_POT1SC| 0))& (0+255)
  1382  0265  120A  158A  2441  120A  118A  	fcall	_itoa
  1383  026A                     l2364:	
  1384                           
  1385                           ;Lab5_MASTER.c: 77:         strcat(POT1SB,POT1SA);
  1386  026A  30A5               	movlw	(low (_POT1SA| 0))& (0+255)
  1387  026B  1283               	bcf	3,5	;RP0=0, select bank0
  1388  026C  1303               	bcf	3,6	;RP1=0, select bank0
  1389  026D  00D4               	movwf	??_main
  1390  026E  0854               	movf	??_main,w
  1391  026F  00F0               	movwf	strcat@from
  1392  0270  306A               	movlw	(low (_POT1SB| 0))& (0+255)
  1393  0271  120A  158A  24DD  120A  118A  	fcall	_strcat
  1394  0276                     l2366:	
  1395                           
  1396                           ;Lab5_MASTER.c: 78:         strcpy(PUNTO1,".");
  1397  0276  3011               	movlw	(low (((STR_1+16)-__stringbase)| (0+32768)))& (0+255)
  1398  0277  1283               	bcf	3,5	;RP0=0, select bank0
  1399  0278  1303               	bcf	3,6	;RP1=0, select bank0
  1400  0279  00D4               	movwf	??_main
  1401  027A  0854               	movf	??_main,w
  1402  027B  00F0               	movwf	strcpy@from
  1403  027C  30A0               	movlw	(low (_PUNTO1| 0))& (0+255)
  1404  027D  120A  158A  2420  120A  118A  	fcall	_strcpy
  1405  0282                     l2368:	
  1406                           
  1407                           ;Lab5_MASTER.c: 79:         strcat(PUNTO1,POT1SB);
  1408  0282  306A               	movlw	(low (_POT1SB| 0))& (0+255)
  1409  0283  1283               	bcf	3,5	;RP0=0, select bank0
  1410  0284  1303               	bcf	3,6	;RP1=0, select bank0
  1411  0285  00D4               	movwf	??_main
  1412  0286  0854               	movf	??_main,w
  1413  0287  00F0               	movwf	strcat@from
  1414  0288  30A0               	movlw	(low (_PUNTO1| 0))& (0+255)
  1415  0289  120A  158A  24DD  120A  118A  	fcall	_strcat
  1416  028E                     l2370:	
  1417                           
  1418                           ;Lab5_MASTER.c: 80:         strcat(POT1SC,PUNTO1);
  1419  028E  30A0               	movlw	(low (_PUNTO1| 0))& (0+255)
  1420  028F  1283               	bcf	3,5	;RP0=0, select bank0
  1421  0290  1303               	bcf	3,6	;RP1=0, select bank0
  1422  0291  00D4               	movwf	??_main
  1423  0292  0854               	movf	??_main,w
  1424  0293  00F0               	movwf	strcat@from
  1425  0294  3065               	movlw	(low (_POT1SC| 0))& (0+255)
  1426  0295  120A  158A  24DD  120A  118A  	fcall	_strcat
  1427  029A                     l2372:	
  1428                           
  1429                           ;Lab5_MASTER.c: 81:         lcd_cmd(0xC0);
  1430  029A  30C0               	movlw	192
  1431  029B  120A  158A  23FC  120A  118A  	fcall	_lcd_cmd
  1432  02A0                     l2374:	
  1433                           
  1434                           ;Lab5_MASTER.c: 82:         lcd_msg(POT1SC);
  1435  02A0  3065               	movlw	(low (_POT1SC| 0))& (0+255)
  1436  02A1  00F3               	movwf	lcd_msg@c
  1437  02A2  3000               	movlw	0
  1438  02A3  00F4               	movwf	lcd_msg@c+1
  1439  02A4  120A  158A  2467  120A  118A  	fcall	_lcd_msg
  1440  02A9  2942               	goto	l2338
  1441  02AA  120A  118A  2800   	ljmp	start
  1442  02AD                     __end_of_main:	
  1443                           
  1444                           	psect	text1
  1445  0C20                     __ptext1:	
  1446 ;; *************** function _strcpy *****************
  1447 ;; Defined at:
  1448 ;;		line 8 in file "C:\Program Files (x86)\Microchip\xc8\v2.10\pic\sources\c90\common\strcpy.c"
  1449 ;; Parameters:    Size  Location     Type
  1450 ;;  to              1    wreg     PTR unsigned char 
  1451 ;;		 -> PUNTO1(5), 
  1452 ;;  from            1    0[COMMON] PTR const unsigned char 
  1453 ;;		 -> STR_2(2), 
  1454 ;; Auto vars:     Size  Location     Type
  1455 ;;  to              1    2[COMMON] PTR unsigned char 
  1456 ;;		 -> PUNTO1(5), 
  1457 ;;  cp              1    3[COMMON] PTR unsigned char 
  1458 ;;		 -> PUNTO1(5), 
  1459 ;; Return value:  Size  Location     Type
  1460 ;;                  1    wreg      PTR unsigned char 
  1461 ;; Registers used:
  1462 ;;		wreg, fsr0l, fsr0h, status,2, status,0, pclath
  1463 ;; Tracked objects:
  1464 ;;		On entry : 0/0
  1465 ;;		On exit  : 0/0
  1466 ;;		Unchanged: 0/0
  1467 ;; Data sizes:     COMMON   BANK0   BANK1   BANK3   BANK2
  1468 ;;      Params:         1       0       0       0       0
  1469 ;;      Locals:         2       0       0       0       0
  1470 ;;      Temps:          1       0       0       0       0
  1471 ;;      Totals:         4       0       0       0       0
  1472 ;;Total ram usage:        4 bytes
  1473 ;; Hardware stack levels used:    2
  1474 ;; This function calls:
  1475 ;;		Nothing
  1476 ;; This function is called by:
  1477 ;;		_main
  1478 ;; This function uses a non-reentrant model
  1479 ;;
  1480                           
  1481                           
  1482                           ;psect for function _strcpy
  1483  0C20                     _strcpy:	
  1484                           
  1485                           ;incstack = 0
  1486                           ; Regs used in _strcpy: [wreg-fsr0h+status,2+status,0+pclath]
  1487                           ;strcpy@to stored from wreg
  1488  0C20  00F2               	movwf	strcpy@to
  1489  0C21                     l1866:	
  1490  0C21  0872               	movf	strcpy@to,w
  1491  0C22  00F1               	movwf	??_strcpy
  1492  0C23  0871               	movf	??_strcpy,w
  1493  0C24  00F3               	movwf	strcpy@cp
  1494  0C25  2C2E               	goto	l1870
  1495  0C26                     l1868:	
  1496  0C26  3001               	movlw	1
  1497  0C27  00F1               	movwf	??_strcpy
  1498  0C28  0871               	movf	??_strcpy,w
  1499  0C29  07F3               	addwf	strcpy@cp,f
  1500  0C2A  3001               	movlw	1
  1501  0C2B  00F1               	movwf	??_strcpy
  1502  0C2C  0871               	movf	??_strcpy,w
  1503  0C2D  07F0               	addwf	strcpy@from,f
  1504  0C2E                     l1870:	
  1505  0C2E  0870               	movf	strcpy@from,w
  1506  0C2F  0084               	movwf	4
  1507  0C30  120A  158A  200A  120A  158A  	fcall	stringdir
  1508  0C35  00F1               	movwf	??_strcpy
  1509  0C36  0873               	movf	strcpy@cp,w
  1510  0C37  0084               	movwf	4
  1511  0C38  0871               	movf	??_strcpy,w
  1512  0C39  1383               	bcf	3,7	;select IRP bank0
  1513  0C3A  0080               	movwf	0
  1514  0C3B  0800               	movf	0,w
  1515  0C3C  1D03               	btfss	3,2
  1516  0C3D  2C3F               	goto	u1811
  1517  0C3E  2C40               	goto	u1810
  1518  0C3F                     u1811:	
  1519  0C3F  2C26               	goto	l1868
  1520  0C40                     u1810:	
  1521  0C40                     l744:	
  1522  0C40  0008               	return
  1523  0C41                     __end_of_strcpy:	
  1524                           
  1525                           	psect	text2
  1526  0CDD                     __ptext2:	
  1527 ;; *************** function _strcat *****************
  1528 ;; Defined at:
  1529 ;;		line 8 in file "C:\Program Files (x86)\Microchip\xc8\v2.10\pic\sources\c90\common\strcat.c"
  1530 ;; Parameters:    Size  Location     Type
  1531 ;;  to              1    wreg     PTR unsigned char 
  1532 ;;		 -> PUNTO1(5), POT1SC(5), POT1SB(5), 
  1533 ;;  from            1    0[COMMON] PTR const unsigned char 
  1534 ;;		 -> PUNTO1(5), POT1SB(5), POT1SA(5), 
  1535 ;; Auto vars:     Size  Location     Type
  1536 ;;  to              1    2[COMMON] PTR unsigned char 
  1537 ;;		 -> PUNTO1(5), POT1SC(5), POT1SB(5), 
  1538 ;;  cp              1    3[COMMON] PTR unsigned char 
  1539 ;;		 -> PUNTO1(5), POT1SC(5), POT1SB(5), 
  1540 ;; Return value:  Size  Location     Type
  1541 ;;                  1    wreg      PTR unsigned char 
  1542 ;; Registers used:
  1543 ;;		wreg, fsr0l, fsr0h, status,2, status,0
  1544 ;; Tracked objects:
  1545 ;;		On entry : 0/0
  1546 ;;		On exit  : 0/0
  1547 ;;		Unchanged: 0/0
  1548 ;; Data sizes:     COMMON   BANK0   BANK1   BANK3   BANK2
  1549 ;;      Params:         1       0       0       0       0
  1550 ;;      Locals:         2       0       0       0       0
  1551 ;;      Temps:          1       0       0       0       0
  1552 ;;      Totals:         4       0       0       0       0
  1553 ;;Total ram usage:        4 bytes
  1554 ;; Hardware stack levels used:    1
  1555 ;; This function calls:
  1556 ;;		Nothing
  1557 ;; This function is called by:
  1558 ;;		_main
  1559 ;; This function uses a non-reentrant model
  1560 ;;
  1561                           
  1562                           
  1563                           ;psect for function _strcat
  1564  0CDD                     _strcat:	
  1565                           
  1566                           ;incstack = 0
  1567                           ; Regs used in _strcat: [wreg-fsr0h+status,2+status,0]
  1568                           ;strcat@to stored from wreg
  1569  0CDD  00F2               	movwf	strcat@to
  1570  0CDE                     l1856:	
  1571  0CDE  0872               	movf	strcat@to,w
  1572  0CDF  00F1               	movwf	??_strcat
  1573  0CE0  0871               	movf	??_strcat,w
  1574  0CE1  00F3               	movwf	strcat@cp
  1575  0CE2  2CE7               	goto	l1860
  1576  0CE3                     l1858:	
  1577  0CE3  3001               	movlw	1
  1578  0CE4  00F1               	movwf	??_strcat
  1579  0CE5  0871               	movf	??_strcat,w
  1580  0CE6  07F3               	addwf	strcat@cp,f
  1581  0CE7                     l1860:	
  1582  0CE7  0873               	movf	strcat@cp,w
  1583  0CE8  0084               	movwf	4
  1584  0CE9  1383               	bcf	3,7	;select IRP bank0
  1585  0CEA  0800               	movf	0,w
  1586  0CEB  1D03               	btfss	3,2
  1587  0CEC  2CEE               	goto	u1791
  1588  0CED  2CEF               	goto	u1790
  1589  0CEE                     u1791:	
  1590  0CEE  2CE3               	goto	l1858
  1591  0CEF                     u1790:	
  1592  0CEF  2CF8               	goto	l1864
  1593  0CF0                     l1862:	
  1594  0CF0  3001               	movlw	1
  1595  0CF1  00F1               	movwf	??_strcat
  1596  0CF2  0871               	movf	??_strcat,w
  1597  0CF3  07F3               	addwf	strcat@cp,f
  1598  0CF4  3001               	movlw	1
  1599  0CF5  00F1               	movwf	??_strcat
  1600  0CF6  0871               	movf	??_strcat,w
  1601  0CF7  07F0               	addwf	strcat@from,f
  1602  0CF8                     l1864:	
  1603  0CF8  0870               	movf	strcat@from,w
  1604  0CF9  0084               	movwf	4
  1605  0CFA  0800               	movf	0,w
  1606  0CFB  00F1               	movwf	??_strcat
  1607  0CFC  0873               	movf	strcat@cp,w
  1608  0CFD  0084               	movwf	4
  1609  0CFE  0871               	movf	??_strcat,w
  1610  0CFF  0080               	movwf	0
  1611  0D00  0800               	movf	0,w
  1612  0D01  1D03               	btfss	3,2
  1613  0D02  2D04               	goto	u1801
  1614  0D03  2D05               	goto	u1800
  1615  0D04                     u1801:	
  1616  0D04  2CF0               	goto	l1862
  1617  0D05                     u1800:	
  1618  0D05                     l738:	
  1619  0D05  0008               	return
  1620  0D06                     __end_of_strcat:	
  1621                           
  1622                           	psect	text3
  1623  0C67                     __ptext3:	
  1624 ;; *************** function _lcd_msg *****************
  1625 ;; Defined at:
  1626 ;;		line 43 in file "LCD.c"
  1627 ;; Parameters:    Size  Location     Type
  1628 ;;  c               2    3[COMMON] PTR unsigned char 
  1629 ;;		 -> POT1SC(5), STR_1(18), 
  1630 ;; Auto vars:     Size  Location     Type
  1631 ;;		None
  1632 ;; Return value:  Size  Location     Type
  1633 ;;                  1    wreg      void 
  1634 ;; Registers used:
  1635 ;;		wreg, fsr0l, fsr0h, status,2, status,0, btemp+1, pclath, cstack
  1636 ;; Tracked objects:
  1637 ;;		On entry : 0/0
  1638 ;;		On exit  : 0/0
  1639 ;;		Unchanged: 0/0
  1640 ;; Data sizes:     COMMON   BANK0   BANK1   BANK3   BANK2
  1641 ;;      Params:         2       0       0       0       0
  1642 ;;      Locals:         0       0       0       0       0
  1643 ;;      Temps:          0       0       0       0       0
  1644 ;;      Totals:         2       0       0       0       0
  1645 ;;Total ram usage:        2 bytes
  1646 ;; Hardware stack levels used:    1
  1647 ;; Hardware stack levels required when called:    2
  1648 ;; This function calls:
  1649 ;;		_lcd_dwr
  1650 ;; This function is called by:
  1651 ;;		_main
  1652 ;; This function uses a non-reentrant model
  1653 ;;
  1654                           
  1655                           
  1656                           ;psect for function _lcd_msg
  1657  0C67                     _lcd_msg:	
  1658  0C67                     l1834:	
  1659                           ;incstack = 0
  1660                           ; Regs used in _lcd_msg: [wreg-fsr0h+status,2+status,0+btemp+1+pclath+cstack]
  1661                           
  1662                           
  1663                           ;LCD.c: 44:     while(*c != 0)
  1664  0C67  2C7C               	goto	l1840
  1665  0C68                     l1836:	
  1666                           
  1667                           ;LCD.c: 45:         lcd_dwr(*c++);
  1668  0C68  0874               	movf	lcd_msg@c+1,w
  1669  0C69  00FF               	movwf	btemp+1
  1670  0C6A  0873               	movf	lcd_msg@c,w
  1671  0C6B  0084               	movwf	4
  1672  0C6C  120A  158A  2000  120A  158A  	fcall	stringtab
  1673  0C71  120A  158A  240E  120A  158A  	fcall	_lcd_dwr
  1674  0C76                     l1838:	
  1675  0C76  3001               	movlw	1
  1676  0C77  07F3               	addwf	lcd_msg@c,f
  1677  0C78  1803               	skipnc
  1678  0C79  0AF4               	incf	lcd_msg@c+1,f
  1679  0C7A  3000               	movlw	0
  1680  0C7B  07F4               	addwf	lcd_msg@c+1,f
  1681  0C7C                     l1840:	
  1682                           
  1683                           ;LCD.c: 44:     while(*c != 0)
  1684  0C7C  0874               	movf	lcd_msg@c+1,w
  1685  0C7D  1283               	bcf	3,5	;RP0=0, select bank0
  1686  0C7E  1303               	bcf	3,6	;RP1=0, select bank0
  1687  0C7F  00FF               	movwf	btemp+1
  1688  0C80  0873               	movf	lcd_msg@c,w
  1689  0C81  0084               	movwf	4
  1690  0C82  120A  158A  2000  120A  158A  	fcall	stringtab
  1691  0C87  3A00               	xorlw	0
  1692  0C88  1D03               	skipz
  1693  0C89  2C8B               	goto	u1771
  1694  0C8A  2C8C               	goto	u1770
  1695  0C8B                     u1771:	
  1696  0C8B  2C68               	goto	l1836
  1697  0C8C                     u1770:	
  1698  0C8C                     l184:	
  1699  0C8C  0008               	return
  1700  0C8D                     __end_of_lcd_msg:	
  1701                           
  1702                           	psect	text4
  1703  0C0E                     __ptext4:	
  1704 ;; *************** function _lcd_dwr *****************
  1705 ;; Defined at:
  1706 ;;		line 35 in file "LCD.c"
  1707 ;; Parameters:    Size  Location     Type
  1708 ;;  x               1    wreg     unsigned char 
  1709 ;; Auto vars:     Size  Location     Type
  1710 ;;  x               1    2[COMMON] unsigned char 
  1711 ;; Return value:  Size  Location     Type
  1712 ;;                  1    wreg      void 
  1713 ;; Registers used:
  1714 ;;		wreg, status,2, status,0, pclath, cstack
  1715 ;; Tracked objects:
  1716 ;;		On entry : 0/0
  1717 ;;		On exit  : 0/0
  1718 ;;		Unchanged: 0/0
  1719 ;; Data sizes:     COMMON   BANK0   BANK1   BANK3   BANK2
  1720 ;;      Params:         0       0       0       0       0
  1721 ;;      Locals:         1       0       0       0       0
  1722 ;;      Temps:          0       0       0       0       0
  1723 ;;      Totals:         1       0       0       0       0
  1724 ;;Total ram usage:        1 bytes
  1725 ;; Hardware stack levels used:    1
  1726 ;; Hardware stack levels required when called:    1
  1727 ;; This function calls:
  1728 ;;		_lcd_lat
  1729 ;;		_lcd_ready
  1730 ;; This function is called by:
  1731 ;;		_lcd_msg
  1732 ;; This function uses a non-reentrant model
  1733 ;;
  1734                           
  1735                           
  1736                           ;psect for function _lcd_dwr
  1737  0C0E                     _lcd_dwr:	
  1738                           
  1739                           ;incstack = 0
  1740                           ; Regs used in _lcd_dwr: [wreg+status,2+status,0+pclath+cstack]
  1741                           ;lcd_dwr@x stored from wreg
  1742  0C0E  00F2               	movwf	lcd_dwr@x
  1743  0C0F                     l1688:	
  1744                           
  1745                           ;LCD.c: 36:     lcd_ready();
  1746  0C0F  120A  158A  24B4  120A  158A  	fcall	_lcd_ready
  1747  0C14                     l1690:	
  1748                           
  1749                           ;LCD.c: 37:     PORTB = x;
  1750  0C14  0872               	movf	lcd_dwr@x,w
  1751  0C15  1283               	bcf	3,5	;RP0=0, select bank0
  1752  0C16  1303               	bcf	3,6	;RP1=0, select bank0
  1753  0C17  0086               	movwf	6	;volatile
  1754  0C18                     l1692:	
  1755                           
  1756                           ;LCD.c: 38:     RD7 = 1;
  1757  0C18  1788               	bsf	8,7	;volatile
  1758  0C19                     l1694:	
  1759                           
  1760                           ;LCD.c: 39:     RD2 = 0;
  1761  0C19  1108               	bcf	8,2	;volatile
  1762  0C1A                     l1696:	
  1763                           
  1764                           ;LCD.c: 40:     lcd_lat();
  1765  0C1A  120A  158A  23DD  120A  158A  	fcall	_lcd_lat
  1766  0C1F                     l178:	
  1767  0C1F  0008               	return
  1768  0C20                     __end_of_lcd_dwr:	
  1769                           
  1770                           	psect	text5
  1771  0BFC                     __ptext5:	
  1772 ;; *************** function _lcd_cmd *****************
  1773 ;; Defined at:
  1774 ;;		line 5 in file "LCD.c"
  1775 ;; Parameters:    Size  Location     Type
  1776 ;;  x               1    wreg     unsigned char 
  1777 ;; Auto vars:     Size  Location     Type
  1778 ;;  x               1    2[COMMON] unsigned char 
  1779 ;; Return value:  Size  Location     Type
  1780 ;;                  1    wreg      void 
  1781 ;; Registers used:
  1782 ;;		wreg, status,2, status,0, pclath, cstack
  1783 ;; Tracked objects:
  1784 ;;		On entry : 0/0
  1785 ;;		On exit  : 0/0
  1786 ;;		Unchanged: 0/0
  1787 ;; Data sizes:     COMMON   BANK0   BANK1   BANK3   BANK2
  1788 ;;      Params:         0       0       0       0       0
  1789 ;;      Locals:         1       0       0       0       0
  1790 ;;      Temps:          0       0       0       0       0
  1791 ;;      Totals:         1       0       0       0       0
  1792 ;;Total ram usage:        1 bytes
  1793 ;; Hardware stack levels used:    1
  1794 ;; Hardware stack levels required when called:    1
  1795 ;; This function calls:
  1796 ;;		_lcd_lat
  1797 ;;		_lcd_ready
  1798 ;; This function is called by:
  1799 ;;		_main
  1800 ;;		_lcd_init
  1801 ;; This function uses a non-reentrant model
  1802 ;;
  1803                           
  1804                           
  1805                           ;psect for function _lcd_cmd
  1806  0BFC                     _lcd_cmd:	
  1807                           
  1808                           ;incstack = 0
  1809                           ; Regs used in _lcd_cmd: [wreg+status,2+status,0+pclath+cstack]
  1810                           ;lcd_cmd@x stored from wreg
  1811  0BFC  00F2               	movwf	lcd_cmd@x
  1812  0BFD                     l1872:	
  1813                           
  1814                           ;LCD.c: 6:     lcd_ready();
  1815  0BFD  120A  158A  24B4  120A  158A  	fcall	_lcd_ready
  1816  0C02                     l1874:	
  1817                           
  1818                           ;LCD.c: 7:     PORTB = x;
  1819  0C02  0872               	movf	lcd_cmd@x,w
  1820  0C03  1283               	bcf	3,5	;RP0=0, select bank0
  1821  0C04  1303               	bcf	3,6	;RP1=0, select bank0
  1822  0C05  0086               	movwf	6	;volatile
  1823  0C06                     l1876:	
  1824                           
  1825                           ;LCD.c: 8:     RD7 = 0;
  1826  0C06  1388               	bcf	8,7	;volatile
  1827  0C07                     l1878:	
  1828                           
  1829                           ;LCD.c: 9:     RD2 = 0;
  1830  0C07  1108               	bcf	8,2	;volatile
  1831  0C08                     l1880:	
  1832                           
  1833                           ;LCD.c: 10:     lcd_lat();
  1834  0C08  120A  158A  23DD  120A  158A  	fcall	_lcd_lat
  1835  0C0D                     l167:	
  1836  0C0D  0008               	return
  1837  0C0E                     __end_of_lcd_cmd:	
  1838                           
  1839                           	psect	text6
  1840  0CB4                     __ptext6:	
  1841 ;; *************** function _lcd_ready *****************
  1842 ;; Defined at:
  1843 ;;		line 18 in file "LCD.c"
  1844 ;; Parameters:    Size  Location     Type
  1845 ;;		None
  1846 ;; Auto vars:     Size  Location     Type
  1847 ;;		None
  1848 ;; Return value:  Size  Location     Type
  1849 ;;                  1    wreg      void 
  1850 ;; Registers used:
  1851 ;;		wreg, status,2, status,0
  1852 ;; Tracked objects:
  1853 ;;		On entry : 0/0
  1854 ;;		On exit  : 0/0
  1855 ;;		Unchanged: 0/0
  1856 ;; Data sizes:     COMMON   BANK0   BANK1   BANK3   BANK2
  1857 ;;      Params:         0       0       0       0       0
  1858 ;;      Locals:         0       0       0       0       0
  1859 ;;      Temps:          2       0       0       0       0
  1860 ;;      Totals:         2       0       0       0       0
  1861 ;;Total ram usage:        2 bytes
  1862 ;; Hardware stack levels used:    1
  1863 ;; This function calls:
  1864 ;;		Nothing
  1865 ;; This function is called by:
  1866 ;;		_lcd_cmd
  1867 ;;		_lcd_dwr
  1868 ;; This function uses a non-reentrant model
  1869 ;;
  1870                           
  1871                           
  1872                           ;psect for function _lcd_ready
  1873  0CB4                     _lcd_ready:	
  1874  0CB4                     l1610:	
  1875                           ;incstack = 0
  1876                           ; Regs used in _lcd_ready: [wreg+status,2+status,0]
  1877                           
  1878                           
  1879                           ;LCD.c: 19:     PORTB = 0xFF;
  1880  0CB4  30FF               	movlw	255
  1881  0CB5  1283               	bcf	3,5	;RP0=0, select bank0
  1882  0CB6  1303               	bcf	3,6	;RP1=0, select bank0
  1883  0CB7  0086               	movwf	6	;volatile
  1884  0CB8                     l1612:	
  1885                           
  1886                           ;LCD.c: 20:     PORTB &= 0x80;
  1887  0CB8  3080               	movlw	128
  1888  0CB9  00F0               	movwf	??_lcd_ready
  1889  0CBA  0870               	movf	??_lcd_ready,w
  1890  0CBB  0586               	andwf	6,f	;volatile
  1891  0CBC                     l1614:	
  1892                           
  1893                           ;LCD.c: 21:     RD7 = 0;
  1894  0CBC  1388               	bcf	8,7	;volatile
  1895  0CBD                     l1616:	
  1896                           
  1897                           ;LCD.c: 22:     RD2 = 1;
  1898  0CBD  1508               	bsf	8,2	;volatile
  1899  0CBE                     l1618:	
  1900                           
  1901                           ;LCD.c: 23:     RD3 = 0;
  1902  0CBE  1188               	bcf	8,3	;volatile
  1903  0CBF                     l1620:	
  1904                           
  1905                           ;LCD.c: 24:     _delay((unsigned long)((30)*(4000000/4000.0)));
  1906  0CBF  3027               	movlw	39
  1907  0CC0  00F1               	movwf	??_lcd_ready+1
  1908  0CC1  30F5               	movlw	245
  1909  0CC2  00F0               	movwf	??_lcd_ready
  1910  0CC3                     u2927:	
  1911  0CC3  0BF0               	decfsz	??_lcd_ready,f
  1912  0CC4  2CC3               	goto	u2927
  1913  0CC5  0BF1               	decfsz	??_lcd_ready+1,f
  1914  0CC6  2CC3               	goto	u2927
  1915  0CC7                     l1622:	
  1916                           
  1917                           ;LCD.c: 25:     RD3 = 1;
  1918  0CC7  1283               	bcf	3,5	;RP0=0, select bank0
  1919  0CC8  1303               	bcf	3,6	;RP1=0, select bank0
  1920  0CC9  1588               	bsf	8,3	;volatile
  1921                           
  1922                           ;LCD.c: 26:     if (PORTB == 0x80){
  1923  0CCA  3080               	movlw	128
  1924  0CCB  0606               	xorwf	6,w	;volatile
  1925  0CCC  1D03               	btfss	3,2
  1926  0CCD  2CCF               	goto	u1461
  1927  0CCE  2CD0               	goto	u1460
  1928  0CCF                     u1461:	
  1929  0CCF  2CDC               	goto	l175
  1930  0CD0                     u1460:	
  1931  0CD0                     l1624:	
  1932                           
  1933                           ;LCD.c: 27:     RD3 = 0;
  1934  0CD0  1188               	bcf	8,3	;volatile
  1935  0CD1                     l1626:	
  1936                           
  1937                           ;LCD.c: 28:     _delay((unsigned long)((30)*(4000000/4000.0)));
  1938  0CD1  3027               	movlw	39
  1939  0CD2  00F1               	movwf	??_lcd_ready+1
  1940  0CD3  30F5               	movlw	245
  1941  0CD4  00F0               	movwf	??_lcd_ready
  1942  0CD5                     u2937:	
  1943  0CD5  0BF0               	decfsz	??_lcd_ready,f
  1944  0CD6  2CD5               	goto	u2937
  1945  0CD7  0BF1               	decfsz	??_lcd_ready+1,f
  1946  0CD8  2CD5               	goto	u2937
  1947  0CD9                     l1628:	
  1948                           
  1949                           ;LCD.c: 29:     RD3 = 1;
  1950  0CD9  1283               	bcf	3,5	;RP0=0, select bank0
  1951  0CDA  1303               	bcf	3,6	;RP1=0, select bank0
  1952  0CDB  1588               	bsf	8,3	;volatile
  1953  0CDC                     l175:	
  1954                           ;LCD.c: 30:     }
  1955                           
  1956  0CDC  0008               	return
  1957  0CDD                     __end_of_lcd_ready:	
  1958                           
  1959                           	psect	text7
  1960  0BDD                     __ptext7:	
  1961 ;; *************** function _lcd_lat *****************
  1962 ;; Defined at:
  1963 ;;		line 13 in file "LCD.c"
  1964 ;; Parameters:    Size  Location     Type
  1965 ;;		None
  1966 ;; Auto vars:     Size  Location     Type
  1967 ;;		None
  1968 ;; Return value:  Size  Location     Type
  1969 ;;                  1    wreg      void 
  1970 ;; Registers used:
  1971 ;;		wreg
  1972 ;; Tracked objects:
  1973 ;;		On entry : 0/0
  1974 ;;		On exit  : 0/0
  1975 ;;		Unchanged: 0/0
  1976 ;; Data sizes:     COMMON   BANK0   BANK1   BANK3   BANK2
  1977 ;;      Params:         0       0       0       0       0
  1978 ;;      Locals:         0       0       0       0       0
  1979 ;;      Temps:          2       0       0       0       0
  1980 ;;      Totals:         2       0       0       0       0
  1981 ;;Total ram usage:        2 bytes
  1982 ;; Hardware stack levels used:    1
  1983 ;; This function calls:
  1984 ;;		Nothing
  1985 ;; This function is called by:
  1986 ;;		_lcd_cmd
  1987 ;;		_lcd_dwr
  1988 ;; This function uses a non-reentrant model
  1989 ;;
  1990                           
  1991                           
  1992                           ;psect for function _lcd_lat
  1993  0BDD                     _lcd_lat:	
  1994  0BDD                     l1630:	
  1995                           ;incstack = 0
  1996                           ; Regs used in _lcd_lat: [wreg]
  1997                           
  1998                           
  1999                           ;LCD.c: 14:     RD3 = 1;
  2000  0BDD  1283               	bcf	3,5	;RP0=0, select bank0
  2001  0BDE  1303               	bcf	3,6	;RP1=0, select bank0
  2002  0BDF  1588               	bsf	8,3	;volatile
  2003  0BE0                     l1632:	
  2004                           
  2005                           ;LCD.c: 15:    _delay((unsigned long)((30)*(4000000/4000.0)));
  2006  0BE0  3027               	movlw	39
  2007  0BE1  00F1               	movwf	??_lcd_lat+1
  2008  0BE2  30F5               	movlw	245
  2009  0BE3  00F0               	movwf	??_lcd_lat
  2010  0BE4                     u2947:	
  2011  0BE4  0BF0               	decfsz	??_lcd_lat,f
  2012  0BE5  2BE4               	goto	u2947
  2013  0BE6  0BF1               	decfsz	??_lcd_lat+1,f
  2014  0BE7  2BE4               	goto	u2947
  2015  0BE8                     l1634:	
  2016                           
  2017                           ;LCD.c: 16:    RD3 = 0;
  2018  0BE8  1283               	bcf	3,5	;RP0=0, select bank0
  2019  0BE9  1303               	bcf	3,6	;RP1=0, select bank0
  2020  0BEA  1188               	bcf	8,3	;volatile
  2021  0BEB                     l170:	
  2022  0BEB  0008               	return
  2023  0BEC                     __end_of_lcd_lat:	
  2024                           
  2025                           	psect	text8
  2026  0C41                     __ptext8:	
  2027 ;; *************** function _itoa *****************
  2028 ;; Defined at:
  2029 ;;		line 4 in file "C:\Program Files (x86)\Microchip\xc8\v2.10\pic\sources\c90\common\itoa.c"
  2030 ;; Parameters:    Size  Location     Type
  2031 ;;  buf             1    wreg     PTR unsigned char 
  2032 ;;		 -> POT1SC(5), POT1SB(5), POT1SA(5), 
  2033 ;;  val             2    4[BANK0 ] int 
  2034 ;;  base            2    6[BANK0 ] int 
  2035 ;; Auto vars:     Size  Location     Type
  2036 ;;  buf             1    9[BANK0 ] PTR unsigned char 
  2037 ;;		 -> POT1SC(5), POT1SB(5), POT1SA(5), 
  2038 ;;  cp              1    0        PTR unsigned char 
  2039 ;;		 -> POT1SC(5), POT1SB(5), POT1SA(5), 
  2040 ;; Return value:  Size  Location     Type
  2041 ;;                  1    wreg      PTR unsigned char 
  2042 ;; Registers used:
  2043 ;;		wreg, fsr0l, fsr0h, status,2, status,0, pclath, cstack
  2044 ;; Tracked objects:
  2045 ;;		On entry : 0/0
  2046 ;;		On exit  : 0/0
  2047 ;;		Unchanged: 0/0
  2048 ;; Data sizes:     COMMON   BANK0   BANK1   BANK3   BANK2
  2049 ;;      Params:         0       4       0       0       0
  2050 ;;      Locals:         0       2       0       0       0
  2051 ;;      Temps:          1       0       0       0       0
  2052 ;;      Totals:         1       6       0       0       0
  2053 ;;Total ram usage:        7 bytes
  2054 ;; Hardware stack levels used:    1
  2055 ;; Hardware stack levels required when called:    2
  2056 ;; This function calls:
  2057 ;;		_utoa
  2058 ;; This function is called by:
  2059 ;;		_main
  2060 ;; This function uses a non-reentrant model
  2061 ;;
  2062                           
  2063                           
  2064                           ;psect for function _itoa
  2065  0C41                     _itoa:	
  2066                           
  2067                           ;incstack = 0
  2068                           ; Regs used in _itoa: [wreg-fsr0h+status,2+status,0+pclath+cstack]
  2069                           ;itoa@buf stored from wreg
  2070  0C41  1283               	bcf	3,5	;RP0=0, select bank0
  2071  0C42  1303               	bcf	3,6	;RP1=0, select bank0
  2072  0C43  00A9               	movwf	itoa@buf
  2073  0C44                     l1842:	
  2074  0C44                     l1844:	
  2075  0C44  1FA5               	btfss	itoa@val+1,7
  2076  0C45  2C47               	goto	u1781
  2077  0C46  2C48               	goto	u1780
  2078  0C47                     u1781:	
  2079  0C47  2C58               	goto	l1852
  2080  0C48                     u1780:	
  2081  0C48                     l1846:	
  2082  0C48  302D               	movlw	45
  2083  0C49  00FD               	movwf	??_itoa
  2084  0C4A  0829               	movf	itoa@buf,w
  2085  0C4B  0084               	movwf	4
  2086  0C4C  087D               	movf	??_itoa,w
  2087  0C4D  1383               	bcf	3,7	;select IRP bank0
  2088  0C4E  0080               	movwf	0
  2089  0C4F                     l1848:	
  2090  0C4F  3001               	movlw	1
  2091  0C50  00FD               	movwf	??_itoa
  2092  0C51  087D               	movf	??_itoa,w
  2093  0C52  07A9               	addwf	itoa@buf,f
  2094  0C53                     l1850:	
  2095  0C53  09A4               	comf	itoa@val,f
  2096  0C54  09A5               	comf	itoa@val+1,f
  2097  0C55  0AA4               	incf	itoa@val,f
  2098  0C56  1903               	skipnz
  2099  0C57  0AA5               	incf	itoa@val+1,f
  2100  0C58                     l1852:	
  2101  0C58  0825               	movf	itoa@val+1,w
  2102  0C59  00F9               	movwf	utoa@val+1
  2103  0C5A  0824               	movf	itoa@val,w
  2104  0C5B  00F8               	movwf	utoa@val
  2105  0C5C  0827               	movf	itoa@base+1,w
  2106  0C5D  00FB               	movwf	utoa@base+1
  2107  0C5E  0826               	movf	itoa@base,w
  2108  0C5F  00FA               	movwf	utoa@base
  2109  0C60  0829               	movf	itoa@buf,w
  2110  0C61  120A  158A  2712  120A  158A  	fcall	_utoa
  2111  0C66                     l721:	
  2112  0C66  0008               	return
  2113  0C67                     __end_of_itoa:	
  2114                           
  2115                           	psect	text9
  2116  0F12                     __ptext9:	
  2117 ;; *************** function _utoa *****************
  2118 ;; Defined at:
  2119 ;;		line 17 in file "C:\Program Files (x86)\Microchip\xc8\v2.10\pic\sources\c90\common\itoa.c"
  2120 ;; Parameters:    Size  Location     Type
  2121 ;;  buf             1    wreg     PTR unsigned char 
  2122 ;;		 -> POT1SC(5), POT1SB(5), POT1SA(5), 
  2123 ;;  val             2    8[COMMON] unsigned int 
  2124 ;;  base            2   10[COMMON] int 
  2125 ;; Auto vars:     Size  Location     Type
  2126 ;;  buf             1    3[BANK0 ] PTR unsigned char 
  2127 ;;		 -> POT1SC(5), POT1SB(5), POT1SA(5), 
  2128 ;;  v               2    0[BANK0 ] unsigned int 
  2129 ;;  c               1    2[BANK0 ] unsigned char 
  2130 ;; Return value:  Size  Location     Type
  2131 ;;                  1    wreg      PTR unsigned char 
  2132 ;; Registers used:
  2133 ;;		wreg, fsr0l, fsr0h, status,2, status,0, pclath, cstack
  2134 ;; Tracked objects:
  2135 ;;		On entry : 0/0
  2136 ;;		On exit  : 0/0
  2137 ;;		Unchanged: 0/0
  2138 ;; Data sizes:     COMMON   BANK0   BANK1   BANK3   BANK2
  2139 ;;      Params:         4       0       0       0       0
  2140 ;;      Locals:         0       4       0       0       0
  2141 ;;      Temps:          1       0       0       0       0
  2142 ;;      Totals:         5       4       0       0       0
  2143 ;;Total ram usage:        9 bytes
  2144 ;; Hardware stack levels used:    1
  2145 ;; Hardware stack levels required when called:    1
  2146 ;; This function calls:
  2147 ;;		___lwdiv
  2148 ;;		___lwmod
  2149 ;; This function is called by:
  2150 ;;		_itoa
  2151 ;; This function uses a non-reentrant model
  2152 ;;
  2153                           
  2154                           
  2155                           ;psect for function _utoa
  2156  0F12                     _utoa:	
  2157                           
  2158                           ;incstack = 0
  2159                           ; Regs used in _utoa: [wreg-fsr0h+status,2+status,0+pclath+cstack]
  2160                           ;utoa@buf stored from wreg
  2161  0F12  1283               	bcf	3,5	;RP0=0, select bank0
  2162  0F13  1303               	bcf	3,6	;RP1=0, select bank0
  2163  0F14  00A3               	movwf	utoa@buf
  2164  0F15                     l1736:	
  2165  0F15  0879               	movf	utoa@val+1,w
  2166  0F16  00A1               	movwf	utoa@v+1
  2167  0F17  0878               	movf	utoa@val,w
  2168  0F18  00A0               	movwf	utoa@v
  2169  0F19                     l1738:	
  2170  0F19  087B               	movf	utoa@base+1,w
  2171  0F1A  00F1               	movwf	___lwdiv@divisor+1
  2172  0F1B  087A               	movf	utoa@base,w
  2173  0F1C  00F0               	movwf	___lwdiv@divisor
  2174  0F1D  0821               	movf	utoa@v+1,w
  2175  0F1E  00F3               	movwf	___lwdiv@dividend+1
  2176  0F1F  0820               	movf	utoa@v,w
  2177  0F20  00F2               	movwf	___lwdiv@dividend
  2178  0F21  120A  158A  25A6  120A  158A  	fcall	___lwdiv
  2179  0F26  0871               	movf	?___lwdiv+1,w
  2180  0F27  1283               	bcf	3,5	;RP0=0, select bank0
  2181  0F28  1303               	bcf	3,6	;RP1=0, select bank0
  2182  0F29  00A1               	movwf	utoa@v+1
  2183  0F2A  0870               	movf	?___lwdiv,w
  2184  0F2B  00A0               	movwf	utoa@v
  2185  0F2C                     l1740:	
  2186  0F2C  3001               	movlw	1
  2187  0F2D  00FC               	movwf	??_utoa
  2188  0F2E  087C               	movf	??_utoa,w
  2189  0F2F  07A3               	addwf	utoa@buf,f
  2190  0F30                     l1742:	
  2191  0F30  0820               	movf	utoa@v,w
  2192  0F31  0421               	iorwf	utoa@v+1,w
  2193  0F32  1D03               	btfss	3,2
  2194  0F33  2F35               	goto	u1721
  2195  0F34  2F36               	goto	u1720
  2196  0F35                     u1721:	
  2197  0F35  2F19               	goto	l1738
  2198  0F36                     u1720:	
  2199  0F36                     l1744:	
  2200  0F36  0823               	movf	utoa@buf,w
  2201  0F37  0084               	movwf	4
  2202  0F38  1383               	bcf	3,7	;select IRP bank0
  2203  0F39  0180               	clrf	0
  2204  0F3A                     l1746:	
  2205  0F3A  3001               	movlw	1
  2206  0F3B  02A3               	subwf	utoa@buf,f
  2207  0F3C                     l1748:	
  2208  0F3C  087B               	movf	utoa@base+1,w
  2209  0F3D  00F1               	movwf	___lwmod@divisor+1
  2210  0F3E  087A               	movf	utoa@base,w
  2211  0F3F  00F0               	movwf	___lwmod@divisor
  2212  0F40  0879               	movf	utoa@val+1,w
  2213  0F41  00F3               	movwf	___lwmod@dividend+1
  2214  0F42  0878               	movf	utoa@val,w
  2215  0F43  00F2               	movwf	___lwmod@dividend
  2216  0F44  120A  158A  256C  120A  158A  	fcall	___lwmod
  2217  0F49  0870               	movf	?___lwmod,w
  2218  0F4A  00FC               	movwf	??_utoa
  2219  0F4B  087C               	movf	??_utoa,w
  2220  0F4C  1283               	bcf	3,5	;RP0=0, select bank0
  2221  0F4D  1303               	bcf	3,6	;RP1=0, select bank0
  2222  0F4E  00A2               	movwf	utoa@c
  2223  0F4F                     l1750:	
  2224  0F4F  087B               	movf	utoa@base+1,w
  2225  0F50  00F1               	movwf	___lwdiv@divisor+1
  2226  0F51  087A               	movf	utoa@base,w
  2227  0F52  00F0               	movwf	___lwdiv@divisor
  2228  0F53  0879               	movf	utoa@val+1,w
  2229  0F54  00F3               	movwf	___lwdiv@dividend+1
  2230  0F55  0878               	movf	utoa@val,w
  2231  0F56  00F2               	movwf	___lwdiv@dividend
  2232  0F57  120A  158A  25A6  120A  158A  	fcall	___lwdiv
  2233  0F5C  0871               	movf	?___lwdiv+1,w
  2234  0F5D  00F9               	movwf	utoa@val+1
  2235  0F5E  0870               	movf	?___lwdiv,w
  2236  0F5F  00F8               	movwf	utoa@val
  2237  0F60                     l1752:	
  2238  0F60  300A               	movlw	10
  2239  0F61  1283               	bcf	3,5	;RP0=0, select bank0
  2240  0F62  1303               	bcf	3,6	;RP1=0, select bank0
  2241  0F63  0222               	subwf	utoa@c,w
  2242  0F64  1C03               	skipc
  2243  0F65  2F67               	goto	u1731
  2244  0F66  2F68               	goto	u1730
  2245  0F67                     u1731:	
  2246  0F67  2F6C               	goto	l727
  2247  0F68                     u1730:	
  2248  0F68                     l1754:	
  2249  0F68  3007               	movlw	7
  2250  0F69  00FC               	movwf	??_utoa
  2251  0F6A  087C               	movf	??_utoa,w
  2252  0F6B  07A2               	addwf	utoa@c,f
  2253  0F6C                     l727:	
  2254  0F6C  3030               	movlw	48
  2255  0F6D  00FC               	movwf	??_utoa
  2256  0F6E  087C               	movf	??_utoa,w
  2257  0F6F  07A2               	addwf	utoa@c,f
  2258  0F70                     l1756:	
  2259  0F70  0822               	movf	utoa@c,w
  2260  0F71  00FC               	movwf	??_utoa
  2261  0F72  0823               	movf	utoa@buf,w
  2262  0F73  0084               	movwf	4
  2263  0F74  087C               	movf	??_utoa,w
  2264  0F75  1383               	bcf	3,7	;select IRP bank0
  2265  0F76  0080               	movwf	0
  2266  0F77                     l1758:	
  2267  0F77  3001               	movlw	1
  2268  0F78  02A3               	subwf	utoa@buf,f
  2269  0F79                     l1760:	
  2270  0F79  0878               	movf	utoa@val,w
  2271  0F7A  0479               	iorwf	utoa@val+1,w
  2272  0F7B  1D03               	btfss	3,2
  2273  0F7C  2F7E               	goto	u1741
  2274  0F7D  2F7F               	goto	u1740
  2275  0F7E                     u1741:	
  2276  0F7E  2F3C               	goto	l1748
  2277  0F7F                     u1740:	
  2278  0F7F                     l1762:	
  2279                           
  2280                           ;	Return value of _utoa is never used
  2281  0F7F  3001               	movlw	1
  2282  0F80  00FC               	movwf	??_utoa
  2283  0F81  087C               	movf	??_utoa,w
  2284  0F82  07A3               	addwf	utoa@buf,f
  2285  0F83                     l729:	
  2286  0F83  0008               	return
  2287  0F84                     __end_of_utoa:	
  2288                           
  2289                           	psect	text10
  2290  0D6C                     __ptext10:	
  2291 ;; *************** function ___lwmod *****************
  2292 ;; Defined at:
  2293 ;;		line 5 in file "C:\Program Files (x86)\Microchip\xc8\v2.10\pic\sources\c90\common\lwmod.c"
  2294 ;; Parameters:    Size  Location     Type
  2295 ;;  divisor         2    0[COMMON] unsigned int 
  2296 ;;  dividend        2    2[COMMON] unsigned int 
  2297 ;; Auto vars:     Size  Location     Type
  2298 ;;  counter         1    5[COMMON] unsigned char 
  2299 ;; Return value:  Size  Location     Type
  2300 ;;                  2    0[COMMON] unsigned int 
  2301 ;; Registers used:
  2302 ;;		wreg, status,2, status,0
  2303 ;; Tracked objects:
  2304 ;;		On entry : 0/0
  2305 ;;		On exit  : 0/0
  2306 ;;		Unchanged: 0/0
  2307 ;; Data sizes:     COMMON   BANK0   BANK1   BANK3   BANK2
  2308 ;;      Params:         4       0       0       0       0
  2309 ;;      Locals:         1       0       0       0       0
  2310 ;;      Temps:          1       0       0       0       0
  2311 ;;      Totals:         6       0       0       0       0
  2312 ;;Total ram usage:        6 bytes
  2313 ;; Hardware stack levels used:    1
  2314 ;; This function calls:
  2315 ;;		Nothing
  2316 ;; This function is called by:
  2317 ;;		_utoa
  2318 ;; This function uses a non-reentrant model
  2319 ;;
  2320                           
  2321                           
  2322                           ;psect for function ___lwmod
  2323  0D6C                     ___lwmod:	
  2324  0D6C                     l1662:	
  2325                           ;incstack = 0
  2326                           ; Regs used in ___lwmod: [wreg+status,2+status,0]
  2327                           
  2328  0D6C  0870               	movf	___lwmod@divisor,w
  2329  0D6D  0471               	iorwf	___lwmod@divisor+1,w
  2330  0D6E  1903               	btfsc	3,2
  2331  0D6F  2D71               	goto	u1541
  2332  0D70  2D72               	goto	u1540
  2333  0D71                     u1541:	
  2334  0D71  2DA1               	goto	l1680
  2335  0D72                     u1540:	
  2336  0D72                     l1664:	
  2337  0D72  01F5               	clrf	___lwmod@counter
  2338  0D73  0AF5               	incf	___lwmod@counter,f
  2339  0D74  2D80               	goto	l1670
  2340  0D75                     l1666:	
  2341  0D75  3001               	movlw	1
  2342  0D76                     u1555:	
  2343  0D76  1003               	clrc
  2344  0D77  0DF0               	rlf	___lwmod@divisor,f
  2345  0D78  0DF1               	rlf	___lwmod@divisor+1,f
  2346  0D79  3EFF               	addlw	-1
  2347  0D7A  1D03               	skipz
  2348  0D7B  2D76               	goto	u1555
  2349  0D7C                     l1668:	
  2350  0D7C  3001               	movlw	1
  2351  0D7D  00F4               	movwf	??___lwmod
  2352  0D7E  0874               	movf	??___lwmod,w
  2353  0D7F  07F5               	addwf	___lwmod@counter,f
  2354  0D80                     l1670:	
  2355  0D80  1FF1               	btfss	___lwmod@divisor+1,7
  2356  0D81  2D83               	goto	u1561
  2357  0D82  2D84               	goto	u1560
  2358  0D83                     u1561:	
  2359  0D83  2D75               	goto	l1666
  2360  0D84                     u1560:	
  2361  0D84                     l1672:	
  2362  0D84  0871               	movf	___lwmod@divisor+1,w
  2363  0D85  0273               	subwf	___lwmod@dividend+1,w
  2364  0D86  1D03               	skipz
  2365  0D87  2D8A               	goto	u1575
  2366  0D88  0870               	movf	___lwmod@divisor,w
  2367  0D89  0272               	subwf	___lwmod@dividend,w
  2368  0D8A                     u1575:	
  2369  0D8A  1C03               	skipc
  2370  0D8B  2D8D               	goto	u1571
  2371  0D8C  2D8E               	goto	u1570
  2372  0D8D                     u1571:	
  2373  0D8D  2D94               	goto	l1676
  2374  0D8E                     u1570:	
  2375  0D8E                     l1674:	
  2376  0D8E  0870               	movf	___lwmod@divisor,w
  2377  0D8F  02F2               	subwf	___lwmod@dividend,f
  2378  0D90  0871               	movf	___lwmod@divisor+1,w
  2379  0D91  1C03               	skipc
  2380  0D92  03F3               	decf	___lwmod@dividend+1,f
  2381  0D93  02F3               	subwf	___lwmod@dividend+1,f
  2382  0D94                     l1676:	
  2383  0D94  3001               	movlw	1
  2384  0D95                     u1585:	
  2385  0D95  1003               	clrc
  2386  0D96  0CF1               	rrf	___lwmod@divisor+1,f
  2387  0D97  0CF0               	rrf	___lwmod@divisor,f
  2388  0D98  3EFF               	addlw	-1
  2389  0D99  1D03               	skipz
  2390  0D9A  2D95               	goto	u1585
  2391  0D9B                     l1678:	
  2392  0D9B  3001               	movlw	1
  2393  0D9C  02F5               	subwf	___lwmod@counter,f
  2394  0D9D  1D03               	btfss	3,2
  2395  0D9E  2DA0               	goto	u1591
  2396  0D9F  2DA1               	goto	u1590
  2397  0DA0                     u1591:	
  2398  0DA0  2D84               	goto	l1672
  2399  0DA1                     u1590:	
  2400  0DA1                     l1680:	
  2401  0DA1  0873               	movf	___lwmod@dividend+1,w
  2402  0DA2  00F1               	movwf	?___lwmod+1
  2403  0DA3  0872               	movf	___lwmod@dividend,w
  2404  0DA4  00F0               	movwf	?___lwmod
  2405  0DA5                     l555:	
  2406  0DA5  0008               	return
  2407  0DA6                     __end_of___lwmod:	
  2408                           
  2409                           	psect	text11
  2410  0DA6                     __ptext11:	
  2411 ;; *************** function ___lwdiv *****************
  2412 ;; Defined at:
  2413 ;;		line 5 in file "C:\Program Files (x86)\Microchip\xc8\v2.10\pic\sources\c90\common\lwdiv.c"
  2414 ;; Parameters:    Size  Location     Type
  2415 ;;  divisor         2    0[COMMON] unsigned int 
  2416 ;;  dividend        2    2[COMMON] unsigned int 
  2417 ;; Auto vars:     Size  Location     Type
  2418 ;;  quotient        2    5[COMMON] unsigned int 
  2419 ;;  counter         1    7[COMMON] unsigned char 
  2420 ;; Return value:  Size  Location     Type
  2421 ;;                  2    0[COMMON] unsigned int 
  2422 ;; Registers used:
  2423 ;;		wreg, status,2, status,0
  2424 ;; Tracked objects:
  2425 ;;		On entry : 0/0
  2426 ;;		On exit  : 0/0
  2427 ;;		Unchanged: 0/0
  2428 ;; Data sizes:     COMMON   BANK0   BANK1   BANK3   BANK2
  2429 ;;      Params:         4       0       0       0       0
  2430 ;;      Locals:         3       0       0       0       0
  2431 ;;      Temps:          1       0       0       0       0
  2432 ;;      Totals:         8       0       0       0       0
  2433 ;;Total ram usage:        8 bytes
  2434 ;; Hardware stack levels used:    1
  2435 ;; This function calls:
  2436 ;;		Nothing
  2437 ;; This function is called by:
  2438 ;;		_utoa
  2439 ;; This function uses a non-reentrant model
  2440 ;;
  2441                           
  2442                           
  2443                           ;psect for function ___lwdiv
  2444  0DA6                     ___lwdiv:	
  2445  0DA6                     l1636:	
  2446                           ;incstack = 0
  2447                           ; Regs used in ___lwdiv: [wreg+status,2+status,0]
  2448                           
  2449  0DA6  01F5               	clrf	___lwdiv@quotient
  2450  0DA7  01F6               	clrf	___lwdiv@quotient+1
  2451  0DA8                     l1638:	
  2452  0DA8  0870               	movf	___lwdiv@divisor,w
  2453  0DA9  0471               	iorwf	___lwdiv@divisor+1,w
  2454  0DAA  1903               	btfsc	3,2
  2455  0DAB  2DAD               	goto	u1471
  2456  0DAC  2DAE               	goto	u1470
  2457  0DAD                     u1471:	
  2458  0DAD  2DE5               	goto	l1658
  2459  0DAE                     u1470:	
  2460  0DAE                     l1640:	
  2461  0DAE  01F7               	clrf	___lwdiv@counter
  2462  0DAF  0AF7               	incf	___lwdiv@counter,f
  2463  0DB0  2DBC               	goto	l1646
  2464  0DB1                     l1642:	
  2465  0DB1  3001               	movlw	1
  2466  0DB2                     u1485:	
  2467  0DB2  1003               	clrc
  2468  0DB3  0DF0               	rlf	___lwdiv@divisor,f
  2469  0DB4  0DF1               	rlf	___lwdiv@divisor+1,f
  2470  0DB5  3EFF               	addlw	-1
  2471  0DB6  1D03               	skipz
  2472  0DB7  2DB2               	goto	u1485
  2473  0DB8                     l1644:	
  2474  0DB8  3001               	movlw	1
  2475  0DB9  00F4               	movwf	??___lwdiv
  2476  0DBA  0874               	movf	??___lwdiv,w
  2477  0DBB  07F7               	addwf	___lwdiv@counter,f
  2478  0DBC                     l1646:	
  2479  0DBC  1FF1               	btfss	___lwdiv@divisor+1,7
  2480  0DBD  2DBF               	goto	u1491
  2481  0DBE  2DC0               	goto	u1490
  2482  0DBF                     u1491:	
  2483  0DBF  2DB1               	goto	l1642
  2484  0DC0                     u1490:	
  2485  0DC0                     l1648:	
  2486  0DC0  3001               	movlw	1
  2487  0DC1                     u1505:	
  2488  0DC1  1003               	clrc
  2489  0DC2  0DF5               	rlf	___lwdiv@quotient,f
  2490  0DC3  0DF6               	rlf	___lwdiv@quotient+1,f
  2491  0DC4  3EFF               	addlw	-1
  2492  0DC5  1D03               	skipz
  2493  0DC6  2DC1               	goto	u1505
  2494  0DC7  0871               	movf	___lwdiv@divisor+1,w
  2495  0DC8  0273               	subwf	___lwdiv@dividend+1,w
  2496  0DC9  1D03               	skipz
  2497  0DCA  2DCD               	goto	u1515
  2498  0DCB  0870               	movf	___lwdiv@divisor,w
  2499  0DCC  0272               	subwf	___lwdiv@dividend,w
  2500  0DCD                     u1515:	
  2501  0DCD  1C03               	skipc
  2502  0DCE  2DD0               	goto	u1511
  2503  0DCF  2DD1               	goto	u1510
  2504  0DD0                     u1511:	
  2505  0DD0  2DD8               	goto	l1654
  2506  0DD1                     u1510:	
  2507  0DD1                     l1650:	
  2508  0DD1  0870               	movf	___lwdiv@divisor,w
  2509  0DD2  02F2               	subwf	___lwdiv@dividend,f
  2510  0DD3  0871               	movf	___lwdiv@divisor+1,w
  2511  0DD4  1C03               	skipc
  2512  0DD5  03F3               	decf	___lwdiv@dividend+1,f
  2513  0DD6  02F3               	subwf	___lwdiv@dividend+1,f
  2514  0DD7                     l1652:	
  2515  0DD7  1475               	bsf	___lwdiv@quotient,0
  2516  0DD8                     l1654:	
  2517  0DD8  3001               	movlw	1
  2518  0DD9                     u1525:	
  2519  0DD9  1003               	clrc
  2520  0DDA  0CF1               	rrf	___lwdiv@divisor+1,f
  2521  0DDB  0CF0               	rrf	___lwdiv@divisor,f
  2522  0DDC  3EFF               	addlw	-1
  2523  0DDD  1D03               	skipz
  2524  0DDE  2DD9               	goto	u1525
  2525  0DDF                     l1656:	
  2526  0DDF  3001               	movlw	1
  2527  0DE0  02F7               	subwf	___lwdiv@counter,f
  2528  0DE1  1D03               	btfss	3,2
  2529  0DE2  2DE4               	goto	u1531
  2530  0DE3  2DE5               	goto	u1530
  2531  0DE4                     u1531:	
  2532  0DE4  2DC0               	goto	l1648
  2533  0DE5                     u1530:	
  2534  0DE5                     l1658:	
  2535  0DE5  0876               	movf	___lwdiv@quotient+1,w
  2536  0DE6  00F1               	movwf	?___lwdiv+1
  2537  0DE7  0875               	movf	___lwdiv@quotient,w
  2538  0DE8  00F0               	movwf	?___lwdiv
  2539  0DE9                     l545:	
  2540  0DE9  0008               	return
  2541  0DEA                     __end_of___lwdiv:	
  2542                           
  2543                           	psect	text12
  2544  0009                     __ptext12:	
  2545 ;; *************** function _initOsc *****************
  2546 ;; Defined at:
  2547 ;;		line 9 in file "OSCILADOR.c"
  2548 ;; Parameters:    Size  Location     Type
  2549 ;;  frec            1    wreg     unsigned char 
  2550 ;; Auto vars:     Size  Location     Type
  2551 ;;  frec            1    2[COMMON] unsigned char 
  2552 ;; Return value:  Size  Location     Type
  2553 ;;                  1    wreg      void 
  2554 ;; Registers used:
  2555 ;;		wreg, fsr0l, fsr0h, status,2, status,0
  2556 ;; Tracked objects:
  2557 ;;		On entry : 0/0
  2558 ;;		On exit  : 0/0
  2559 ;;		Unchanged: 0/0
  2560 ;; Data sizes:     COMMON   BANK0   BANK1   BANK3   BANK2
  2561 ;;      Params:         0       0       0       0       0
  2562 ;;      Locals:         1       0       0       0       0
  2563 ;;      Temps:          2       0       0       0       0
  2564 ;;      Totals:         3       0       0       0       0
  2565 ;;Total ram usage:        3 bytes
  2566 ;; Hardware stack levels used:    1
  2567 ;; This function calls:
  2568 ;;		Nothing
  2569 ;; This function is called by:
  2570 ;;		_main
  2571 ;; This function uses a non-reentrant model
  2572 ;;
  2573                           
  2574                           
  2575                           ;psect for function _initOsc
  2576  0009                     _initOsc:	
  2577                           
  2578                           ;incstack = 0
  2579                           ; Regs used in _initOsc: [wreg-fsr0h+status,2+status,0]
  2580                           ;initOsc@frec stored from wreg
  2581  0009  00F2               	movwf	initOsc@frec
  2582  000A                     l1824:	
  2583                           
  2584                           ;OSCILADOR.c: 10:     switch(frec){
  2585  000A  2841               	goto	l1828
  2586  000B                     l140:	
  2587                           ;OSCILADOR.c: 11:         case 0:
  2588                           
  2589                           
  2590                           ;OSCILADOR.c: 12:             OSCCONbits.IRCF0 = 0;
  2591  000B  1683               	bsf	3,5	;RP0=1, select bank1
  2592  000C  1303               	bcf	3,6	;RP1=0, select bank1
  2593  000D  120F               	bcf	15,4	;volatile
  2594                           
  2595                           ;OSCILADOR.c: 13:             OSCCONbits.IRCF1 = 0;
  2596  000E  128F               	bcf	15,5	;volatile
  2597                           
  2598                           ;OSCILADOR.c: 14:             OSCCONbits.IRCF2 = 0;
  2599  000F  130F               	bcf	15,6	;volatile
  2600                           
  2601                           ;OSCILADOR.c: 15:             break;
  2602  0010  2863               	goto	l141
  2603  0011                     l142:	
  2604                           ;OSCILADOR.c: 16:         case 1:
  2605                           
  2606                           
  2607                           ;OSCILADOR.c: 17:             OSCCONbits.IRCF0 = 1;
  2608  0011  1683               	bsf	3,5	;RP0=1, select bank1
  2609  0012  1303               	bcf	3,6	;RP1=0, select bank1
  2610  0013  160F               	bsf	15,4	;volatile
  2611                           
  2612                           ;OSCILADOR.c: 18:             OSCCONbits.IRCF1 = 0;
  2613  0014  128F               	bcf	15,5	;volatile
  2614                           
  2615                           ;OSCILADOR.c: 19:             OSCCONbits.IRCF2 = 0;
  2616  0015  130F               	bcf	15,6	;volatile
  2617                           
  2618                           ;OSCILADOR.c: 20:             break;
  2619  0016  2863               	goto	l141
  2620  0017                     l143:	
  2621                           ;OSCILADOR.c: 21:         case 2:
  2622                           
  2623                           
  2624                           ;OSCILADOR.c: 22:             OSCCONbits.IRCF0 = 0;
  2625  0017  1683               	bsf	3,5	;RP0=1, select bank1
  2626  0018  1303               	bcf	3,6	;RP1=0, select bank1
  2627  0019  120F               	bcf	15,4	;volatile
  2628                           
  2629                           ;OSCILADOR.c: 23:             OSCCONbits.IRCF1 = 1;
  2630  001A  168F               	bsf	15,5	;volatile
  2631                           
  2632                           ;OSCILADOR.c: 24:             OSCCONbits.IRCF2 = 0;
  2633  001B  130F               	bcf	15,6	;volatile
  2634                           
  2635                           ;OSCILADOR.c: 25:             break;
  2636  001C  2863               	goto	l141
  2637  001D                     l144:	
  2638                           ;OSCILADOR.c: 26:         case 3:
  2639                           
  2640                           
  2641                           ;OSCILADOR.c: 27:             OSCCONbits.IRCF0 = 1;
  2642  001D  1683               	bsf	3,5	;RP0=1, select bank1
  2643  001E  1303               	bcf	3,6	;RP1=0, select bank1
  2644  001F  160F               	bsf	15,4	;volatile
  2645                           
  2646                           ;OSCILADOR.c: 28:             OSCCONbits.IRCF1 = 1;
  2647  0020  168F               	bsf	15,5	;volatile
  2648                           
  2649                           ;OSCILADOR.c: 29:             OSCCONbits.IRCF2 = 0;
  2650  0021  130F               	bcf	15,6	;volatile
  2651                           
  2652                           ;OSCILADOR.c: 30:             break;
  2653  0022  2863               	goto	l141
  2654  0023                     l145:	
  2655                           ;OSCILADOR.c: 31:         case 4:
  2656                           
  2657                           
  2658                           ;OSCILADOR.c: 32:             OSCCONbits.IRCF0 = 0;
  2659  0023  1683               	bsf	3,5	;RP0=1, select bank1
  2660  0024  1303               	bcf	3,6	;RP1=0, select bank1
  2661  0025  120F               	bcf	15,4	;volatile
  2662                           
  2663                           ;OSCILADOR.c: 33:             OSCCONbits.IRCF1 = 0;
  2664  0026  128F               	bcf	15,5	;volatile
  2665                           
  2666                           ;OSCILADOR.c: 34:             OSCCONbits.IRCF2 = 1;
  2667  0027  170F               	bsf	15,6	;volatile
  2668                           
  2669                           ;OSCILADOR.c: 35:             break;
  2670  0028  2863               	goto	l141
  2671  0029                     l146:	
  2672                           ;OSCILADOR.c: 36:         case 5:
  2673                           
  2674                           
  2675                           ;OSCILADOR.c: 37:             OSCCONbits.IRCF0 = 1;
  2676  0029  1683               	bsf	3,5	;RP0=1, select bank1
  2677  002A  1303               	bcf	3,6	;RP1=0, select bank1
  2678  002B  160F               	bsf	15,4	;volatile
  2679                           
  2680                           ;OSCILADOR.c: 38:             OSCCONbits.IRCF1 = 0;
  2681  002C  128F               	bcf	15,5	;volatile
  2682                           
  2683                           ;OSCILADOR.c: 39:             OSCCONbits.IRCF2 = 1;
  2684  002D  170F               	bsf	15,6	;volatile
  2685                           
  2686                           ;OSCILADOR.c: 40:             break;
  2687  002E  2863               	goto	l141
  2688  002F                     l147:	
  2689                           ;OSCILADOR.c: 41:         case 6:
  2690                           
  2691                           
  2692                           ;OSCILADOR.c: 42:             OSCCONbits.IRCF0 = 0;
  2693  002F  1683               	bsf	3,5	;RP0=1, select bank1
  2694  0030  1303               	bcf	3,6	;RP1=0, select bank1
  2695  0031  120F               	bcf	15,4	;volatile
  2696                           
  2697                           ;OSCILADOR.c: 43:             OSCCONbits.IRCF1 = 1;
  2698  0032  168F               	bsf	15,5	;volatile
  2699                           
  2700                           ;OSCILADOR.c: 44:             OSCCONbits.IRCF2 = 1;
  2701  0033  170F               	bsf	15,6	;volatile
  2702                           
  2703                           ;OSCILADOR.c: 45:             break;
  2704  0034  2863               	goto	l141
  2705  0035                     l148:	
  2706                           ;OSCILADOR.c: 46:         case 7:
  2707                           
  2708                           
  2709                           ;OSCILADOR.c: 47:             OSCCONbits.IRCF0 = 1;
  2710  0035  1683               	bsf	3,5	;RP0=1, select bank1
  2711  0036  1303               	bcf	3,6	;RP1=0, select bank1
  2712  0037  160F               	bsf	15,4	;volatile
  2713                           
  2714                           ;OSCILADOR.c: 48:             OSCCONbits.IRCF1 = 1;
  2715  0038  168F               	bsf	15,5	;volatile
  2716                           
  2717                           ;OSCILADOR.c: 49:             OSCCONbits.IRCF2 = 1;
  2718  0039  170F               	bsf	15,6	;volatile
  2719                           
  2720                           ;OSCILADOR.c: 50:             break;
  2721  003A  2863               	goto	l141
  2722  003B                     l149:	
  2723                           ;OSCILADOR.c: 51:         default:
  2724                           
  2725                           
  2726                           ;OSCILADOR.c: 52:             OSCCONbits.IRCF0 = 0;
  2727  003B  1683               	bsf	3,5	;RP0=1, select bank1
  2728  003C  1303               	bcf	3,6	;RP1=0, select bank1
  2729  003D  120F               	bcf	15,4	;volatile
  2730                           
  2731                           ;OSCILADOR.c: 53:             OSCCONbits.IRCF1 = 1;
  2732  003E  168F               	bsf	15,5	;volatile
  2733                           
  2734                           ;OSCILADOR.c: 54:             OSCCONbits.IRCF2 = 1;
  2735  003F  170F               	bsf	15,6	;volatile
  2736                           
  2737                           ;OSCILADOR.c: 55:             break;
  2738  0040  2863               	goto	l141
  2739  0041                     l1828:	
  2740  0041  0872               	movf	initOsc@frec,w
  2741  0042  00F0               	movwf	??_initOsc
  2742  0043  01F1               	clrf	??_initOsc+1
  2743                           
  2744                           ; Switch on 2 bytes has been partitioned into a top level switch of size 1, and 1 sub-sw
      +                          itches
  2745                           ; Switch size 1, requested type "simple"
  2746                           ; Number of cases is 1, Range of values is 0 to 0
  2747                           ; switch strategies available:
  2748                           ; Name         Instructions Cycles
  2749                           ; simple_byte            4     3 (average)
  2750                           ; direct_byte           11     8 (fixed)
  2751                           ; jumptable            260     6 (fixed)
  2752                           ;	Chosen strategy is simple_byte
  2753  0044  0871               	movf	??_initOsc+1,w
  2754  0045  3A00               	xorlw	0	; case 0
  2755  0046  1903               	skipnz
  2756  0047  2849               	goto	l2398
  2757  0048  283B               	goto	l149
  2758  0049                     l2398:	
  2759                           
  2760                           ; Switch size 1, requested type "simple"
  2761                           ; Number of cases is 8, Range of values is 0 to 7
  2762                           ; switch strategies available:
  2763                           ; Name         Instructions Cycles
  2764                           ; simple_byte           25    13 (average)
  2765                           ; direct_byte           32     8 (fixed)
  2766                           ; jumptable            260     6 (fixed)
  2767                           ;	Chosen strategy is simple_byte
  2768  0049  0870               	movf	??_initOsc,w
  2769  004A  3A00               	xorlw	0	; case 0
  2770  004B  1903               	skipnz
  2771  004C  280B               	goto	l140
  2772  004D  3A01               	xorlw	1	; case 1
  2773  004E  1903               	skipnz
  2774  004F  2811               	goto	l142
  2775  0050  3A03               	xorlw	3	; case 2
  2776  0051  1903               	skipnz
  2777  0052  2817               	goto	l143
  2778  0053  3A01               	xorlw	1	; case 3
  2779  0054  1903               	skipnz
  2780  0055  281D               	goto	l144
  2781  0056  3A07               	xorlw	7	; case 4
  2782  0057  1903               	skipnz
  2783  0058  2823               	goto	l145
  2784  0059  3A01               	xorlw	1	; case 5
  2785  005A  1903               	skipnz
  2786  005B  2829               	goto	l146
  2787  005C  3A03               	xorlw	3	; case 6
  2788  005D  1903               	skipnz
  2789  005E  282F               	goto	l147
  2790  005F  3A01               	xorlw	1	; case 7
  2791  0060  1903               	skipnz
  2792  0061  2835               	goto	l148
  2793  0062  283B               	goto	l149
  2794  0063                     l141:	
  2795                           
  2796                           ;OSCILADOR.c: 58:     OSCCONbits.SCS = 1;
  2797  0063  140F               	bsf	15,0	;volatile
  2798  0064                     l150:	
  2799  0064  0008               	return
  2800  0065                     __end_of_initOsc:	
  2801                           
  2802                           	psect	text13
  2803  0065                     __ptext13:	
  2804 ;; *************** function ___xxtofl *****************
  2805 ;; Defined at:
  2806 ;;		line 10 in file "C:\Program Files (x86)\Microchip\xc8\v2.10\pic\sources\c90\common\xxtofl.c"
  2807 ;; Parameters:    Size  Location     Type
  2808 ;;  sign            1    wreg     unsigned char 
  2809 ;;  val             4    0[COMMON] long 
  2810 ;; Auto vars:     Size  Location     Type
  2811 ;;  sign            1    8[COMMON] unsigned char 
  2812 ;;  arg             4   10[COMMON] unsigned long 
  2813 ;;  exp             1    9[COMMON] unsigned char 
  2814 ;; Return value:  Size  Location     Type
  2815 ;;                  4    0[COMMON] unsigned char 
  2816 ;; Registers used:
  2817 ;;		wreg, status,2, status,0
  2818 ;; Tracked objects:
  2819 ;;		On entry : 0/0
  2820 ;;		On exit  : 0/0
  2821 ;;		Unchanged: 0/0
  2822 ;; Data sizes:     COMMON   BANK0   BANK1   BANK3   BANK2
  2823 ;;      Params:         4       0       0       0       0
  2824 ;;      Locals:         6       0       0       0       0
  2825 ;;      Temps:          4       0       0       0       0
  2826 ;;      Totals:        14       0       0       0       0
  2827 ;;Total ram usage:       14 bytes
  2828 ;; Hardware stack levels used:    1
  2829 ;; This function calls:
  2830 ;;		Nothing
  2831 ;; This function is called by:
  2832 ;;		_main
  2833 ;; This function uses a non-reentrant model
  2834 ;;
  2835                           
  2836                           
  2837                           ;psect for function ___xxtofl
  2838  0065                     ___xxtofl:	
  2839                           
  2840                           ;incstack = 0
  2841                           ; Regs used in ___xxtofl: [wreg+status,2+status,0]
  2842                           ;___xxtofl@sign stored from wreg
  2843  0065  00F8               	movwf	___xxtofl@sign
  2844  0066                     l2282:	
  2845  0066  0878               	movf	___xxtofl@sign,w
  2846  0067  1903               	btfsc	3,2
  2847  0068  286A               	goto	u2771
  2848  0069  286B               	goto	u2770
  2849  006A                     u2771:	
  2850  006A  287F               	goto	l2288
  2851  006B                     u2770:	
  2852  006B                     l2284:	
  2853  006B  1FF3               	btfss	___xxtofl@val+3,7
  2854  006C  286E               	goto	u2781
  2855  006D  286F               	goto	u2780
  2856  006E                     u2781:	
  2857  006E  287F               	goto	l2288
  2858  006F                     u2780:	
  2859  006F                     l2286:	
  2860  006F  0970               	comf	___xxtofl@val,w
  2861  0070  00FA               	movwf	___xxtofl@arg
  2862  0071  0971               	comf	___xxtofl@val+1,w
  2863  0072  00FB               	movwf	___xxtofl@arg+1
  2864  0073  0972               	comf	___xxtofl@val+2,w
  2865  0074  00FC               	movwf	___xxtofl@arg+2
  2866  0075  0973               	comf	___xxtofl@val+3,w
  2867  0076  00FD               	movwf	___xxtofl@arg+3
  2868  0077  0AFA               	incf	___xxtofl@arg,f
  2869  0078  1903               	skipnz
  2870  0079  0AFB               	incf	___xxtofl@arg+1,f
  2871  007A  1903               	skipnz
  2872  007B  0AFC               	incf	___xxtofl@arg+2,f
  2873  007C  1903               	skipnz
  2874  007D  0AFD               	incf	___xxtofl@arg+3,f
  2875  007E  2887               	goto	l700
  2876  007F                     l2288:	
  2877  007F  0873               	movf	___xxtofl@val+3,w
  2878  0080  00FD               	movwf	___xxtofl@arg+3
  2879  0081  0872               	movf	___xxtofl@val+2,w
  2880  0082  00FC               	movwf	___xxtofl@arg+2
  2881  0083  0871               	movf	___xxtofl@val+1,w
  2882  0084  00FB               	movwf	___xxtofl@arg+1
  2883  0085  0870               	movf	___xxtofl@val,w
  2884  0086  00FA               	movwf	___xxtofl@arg
  2885  0087                     l700:	
  2886  0087  0873               	movf	___xxtofl@val+3,w
  2887  0088  0472               	iorwf	___xxtofl@val+2,w
  2888  0089  0471               	iorwf	___xxtofl@val+1,w
  2889  008A  0470               	iorwf	___xxtofl@val,w
  2890  008B  1D03               	skipz
  2891  008C  288E               	goto	u2791
  2892  008D  288F               	goto	u2790
  2893  008E                     u2791:	
  2894  008E  2898               	goto	l2294
  2895  008F                     u2790:	
  2896  008F                     l2290:	
  2897  008F  3000               	movlw	0
  2898  0090  00F3               	movwf	?___xxtofl+3
  2899  0091  3000               	movlw	0
  2900  0092  00F2               	movwf	?___xxtofl+2
  2901  0093  3000               	movlw	0
  2902  0094  00F1               	movwf	?___xxtofl+1
  2903  0095  3000               	movlw	0
  2904  0096  00F0               	movwf	?___xxtofl
  2905  0097  291E               	goto	l702
  2906  0098                     l2294:	
  2907  0098  3096               	movlw	150
  2908  0099  00F4               	movwf	??___xxtofl
  2909  009A  0874               	movf	??___xxtofl,w
  2910  009B  00F9               	movwf	___xxtofl@exp
  2911  009C  28AA               	goto	l2298
  2912  009D                     l2296:	
  2913  009D  3001               	movlw	1
  2914  009E  00F4               	movwf	??___xxtofl
  2915  009F  0874               	movf	??___xxtofl,w
  2916  00A0  07F9               	addwf	___xxtofl@exp,f
  2917  00A1  3001               	movlw	1
  2918  00A2                     u2805:	
  2919  00A2  1003               	clrc
  2920  00A3  0CFD               	rrf	___xxtofl@arg+3,f
  2921  00A4  0CFC               	rrf	___xxtofl@arg+2,f
  2922  00A5  0CFB               	rrf	___xxtofl@arg+1,f
  2923  00A6  0CFA               	rrf	___xxtofl@arg,f
  2924  00A7  3EFF               	addlw	-1
  2925  00A8  1D03               	skipz
  2926  00A9  28A2               	goto	u2805
  2927  00AA                     l2298:	
  2928  00AA  30FE               	movlw	254
  2929  00AB  057D               	andwf	___xxtofl@arg+3,w
  2930  00AC  1D03               	btfss	3,2
  2931  00AD  28AF               	goto	u2811
  2932  00AE  28B0               	goto	u2810
  2933  00AF                     u2811:	
  2934  00AF  289D               	goto	l2296
  2935  00B0                     u2810:	
  2936  00B0  28CC               	goto	l706
  2937  00B1                     l2300:	
  2938  00B1  3001               	movlw	1
  2939  00B2  00F4               	movwf	??___xxtofl
  2940  00B3  0874               	movf	??___xxtofl,w
  2941  00B4  07F9               	addwf	___xxtofl@exp,f
  2942  00B5                     l2302:	
  2943  00B5  3001               	movlw	1
  2944  00B6  07FA               	addwf	___xxtofl@arg,f
  2945  00B7  3000               	movlw	0
  2946  00B8  1803               	skipnc
  2947  00B9  3001               	movlw	1
  2948  00BA  07FB               	addwf	___xxtofl@arg+1,f
  2949  00BB  3000               	movlw	0
  2950  00BC  1803               	skipnc
  2951  00BD  3001               	movlw	1
  2952  00BE  07FC               	addwf	___xxtofl@arg+2,f
  2953  00BF  3000               	movlw	0
  2954  00C0  1803               	skipnc
  2955  00C1  3001               	movlw	1
  2956  00C2  07FD               	addwf	___xxtofl@arg+3,f
  2957  00C3                     l2304:	
  2958  00C3  3001               	movlw	1
  2959  00C4                     u2825:	
  2960  00C4  1003               	clrc
  2961  00C5  0CFD               	rrf	___xxtofl@arg+3,f
  2962  00C6  0CFC               	rrf	___xxtofl@arg+2,f
  2963  00C7  0CFB               	rrf	___xxtofl@arg+1,f
  2964  00C8  0CFA               	rrf	___xxtofl@arg,f
  2965  00C9  3EFF               	addlw	-1
  2966  00CA  1D03               	skipz
  2967  00CB  28C4               	goto	u2825
  2968  00CC                     l706:	
  2969  00CC  30FF               	movlw	255
  2970  00CD  057D               	andwf	___xxtofl@arg+3,w
  2971  00CE  1D03               	btfss	3,2
  2972  00CF  28D1               	goto	u2831
  2973  00D0  28D2               	goto	u2830
  2974  00D1                     u2831:	
  2975  00D1  28B1               	goto	l2300
  2976  00D2                     u2830:	
  2977  00D2  28DE               	goto	l2308
  2978  00D3                     l2306:	
  2979  00D3  3001               	movlw	1
  2980  00D4  02F9               	subwf	___xxtofl@exp,f
  2981  00D5  3001               	movlw	1
  2982  00D6  00F4               	movwf	??___xxtofl
  2983  00D7                     u2845:	
  2984  00D7  1003               	clrc
  2985  00D8  0DFA               	rlf	___xxtofl@arg,f
  2986  00D9  0DFB               	rlf	___xxtofl@arg+1,f
  2987  00DA  0DFC               	rlf	___xxtofl@arg+2,f
  2988  00DB  0DFD               	rlf	___xxtofl@arg+3,f
  2989  00DC  0BF4               	decfsz	??___xxtofl,f
  2990  00DD  28D7               	goto	u2845
  2991  00DE                     l2308:	
  2992  00DE  1BFC               	btfsc	___xxtofl@arg+2,7
  2993  00DF  28E1               	goto	u2851
  2994  00E0  28E2               	goto	u2850
  2995  00E1                     u2851:	
  2996  00E1  28E8               	goto	l713
  2997  00E2                     u2850:	
  2998  00E2                     l2310:	
  2999  00E2  3002               	movlw	2
  3000  00E3  0279               	subwf	___xxtofl@exp,w
  3001  00E4  1803               	skipnc
  3002  00E5  28E7               	goto	u2861
  3003  00E6  28E8               	goto	u2860
  3004  00E7                     u2861:	
  3005  00E7  28D3               	goto	l2306
  3006  00E8                     u2860:	
  3007  00E8                     l713:	
  3008  00E8  1879               	btfsc	___xxtofl@exp,0
  3009  00E9  28EB               	goto	u2871
  3010  00EA  28EC               	goto	u2870
  3011  00EB                     u2871:	
  3012  00EB  28F4               	goto	l714
  3013  00EC                     u2870:	
  3014  00EC                     l2312:	
  3015  00EC  30FF               	movlw	255
  3016  00ED  05FA               	andwf	___xxtofl@arg,f
  3017  00EE  30FF               	movlw	255
  3018  00EF  05FB               	andwf	___xxtofl@arg+1,f
  3019  00F0  307F               	movlw	127
  3020  00F1  05FC               	andwf	___xxtofl@arg+2,f
  3021  00F2  30FF               	movlw	255
  3022  00F3  05FD               	andwf	___xxtofl@arg+3,f
  3023  00F4                     l714:	
  3024  00F4  1003               	clrc
  3025  00F5  0CF9               	rrf	___xxtofl@exp,f
  3026  00F6                     l2314:	
  3027  00F6  0879               	movf	___xxtofl@exp,w
  3028  00F7  00F4               	movwf	??___xxtofl
  3029  00F8  01F5               	clrf	??___xxtofl+1
  3030  00F9  01F6               	clrf	??___xxtofl+2
  3031  00FA  01F7               	clrf	??___xxtofl+3
  3032  00FB  3018               	movlw	24
  3033  00FC                     u2885:	
  3034  00FC  1003               	clrc
  3035  00FD  0DF4               	rlf	??___xxtofl,f
  3036  00FE  0DF5               	rlf	??___xxtofl+1,f
  3037  00FF  0DF6               	rlf	??___xxtofl+2,f
  3038  0100  0DF7               	rlf	??___xxtofl+3,f
  3039  0101                     u2880:	
  3040  0101  3EFF               	addlw	-1
  3041  0102  1D03               	skipz
  3042  0103  28FC               	goto	u2885
  3043  0104  0874               	movf	??___xxtofl,w
  3044  0105  04FA               	iorwf	___xxtofl@arg,f
  3045  0106  0875               	movf	??___xxtofl+1,w
  3046  0107  04FB               	iorwf	___xxtofl@arg+1,f
  3047  0108  0876               	movf	??___xxtofl+2,w
  3048  0109  04FC               	iorwf	___xxtofl@arg+2,f
  3049  010A  0877               	movf	??___xxtofl+3,w
  3050  010B  04FD               	iorwf	___xxtofl@arg+3,f
  3051  010C                     l2316:	
  3052  010C  0878               	movf	___xxtofl@sign,w
  3053  010D  1903               	btfsc	3,2
  3054  010E  2910               	goto	u2891
  3055  010F  2911               	goto	u2890
  3056  0110                     u2891:	
  3057  0110  2916               	goto	l2322
  3058  0111                     u2890:	
  3059  0111                     l2318:	
  3060  0111  1FF3               	btfss	___xxtofl@val+3,7
  3061  0112  2914               	goto	u2901
  3062  0113  2915               	goto	u2900
  3063  0114                     u2901:	
  3064  0114  2916               	goto	l2322
  3065  0115                     u2900:	
  3066  0115                     l2320:	
  3067  0115  17FD               	bsf	___xxtofl@arg+3,7
  3068  0116                     l2322:	
  3069  0116  087D               	movf	___xxtofl@arg+3,w
  3070  0117  00F3               	movwf	?___xxtofl+3
  3071  0118  087C               	movf	___xxtofl@arg+2,w
  3072  0119  00F2               	movwf	?___xxtofl+2
  3073  011A  087B               	movf	___xxtofl@arg+1,w
  3074  011B  00F1               	movwf	?___xxtofl+1
  3075  011C  087A               	movf	___xxtofl@arg,w
  3076  011D  00F0               	movwf	?___xxtofl
  3077  011E                     l702:	
  3078  011E  0008               	return
  3079  011F                     __end_of___xxtofl:	
  3080                           
  3081                           	psect	text14
  3082  0F84                     __ptext14:	
  3083 ;; *************** function ___fltol *****************
  3084 ;; Defined at:
  3085 ;;		line 43 in file "C:\Program Files (x86)\Microchip\xc8\v2.10\pic\sources\c90\common\fltol.c"
  3086 ;; Parameters:    Size  Location     Type
  3087 ;;  f1              4   26[BANK0 ] unsigned char 
  3088 ;; Auto vars:     Size  Location     Type
  3089 ;;  exp1            1   36[BANK0 ] unsigned char 
  3090 ;;  sign1           1   35[BANK0 ] unsigned char 
  3091 ;; Return value:  Size  Location     Type
  3092 ;;                  4   26[BANK0 ] long 
  3093 ;; Registers used:
  3094 ;;		wreg, status,2, status,0
  3095 ;; Tracked objects:
  3096 ;;		On entry : 0/0
  3097 ;;		On exit  : 0/0
  3098 ;;		Unchanged: 0/0
  3099 ;; Data sizes:     COMMON   BANK0   BANK1   BANK3   BANK2
  3100 ;;      Params:         0       4       0       0       0
  3101 ;;      Locals:         0       2       0       0       0
  3102 ;;      Temps:          0       5       0       0       0
  3103 ;;      Totals:         0      11       0       0       0
  3104 ;;Total ram usage:       11 bytes
  3105 ;; Hardware stack levels used:    1
  3106 ;; This function calls:
  3107 ;;		Nothing
  3108 ;; This function is called by:
  3109 ;;		_main
  3110 ;; This function uses a non-reentrant model
  3111 ;;
  3112                           
  3113                           
  3114                           ;psect for function ___fltol
  3115  0F84                     ___fltol:	
  3116  0F84                     l1964:	
  3117                           ;incstack = 0
  3118                           ; Regs used in ___fltol: [wreg+status,2+status,0]
  3119                           
  3120  0F84  1003               	clrc
  3121  0F85  1283               	bcf	3,5	;RP0=0, select bank0
  3122  0F86  1303               	bcf	3,6	;RP1=0, select bank0
  3123  0F87  0D3C               	rlf	___fltol@f1+2,w
  3124  0F88  0D3D               	rlf	___fltol@f1+3,w
  3125  0F89  00BE               	movwf	??___fltol
  3126  0F8A  083E               	movf	??___fltol,w
  3127  0F8B  00C4               	movwf	___fltol@exp1
  3128  0F8C  0844               	movf	___fltol@exp1,w
  3129  0F8D  1D03               	btfss	3,2
  3130  0F8E  2F90               	goto	u2011
  3131  0F8F  2F91               	goto	u2010
  3132  0F90                     u2011:	
  3133  0F90  2F9A               	goto	l1970
  3134  0F91                     u2010:	
  3135  0F91                     l1966:	
  3136  0F91  3000               	movlw	0
  3137  0F92  00BD               	movwf	?___fltol+3
  3138  0F93  3000               	movlw	0
  3139  0F94  00BC               	movwf	?___fltol+2
  3140  0F95  3000               	movlw	0
  3141  0F96  00BB               	movwf	?___fltol+1
  3142  0F97  3000               	movlw	0
  3143  0F98  00BA               	movwf	?___fltol
  3144  0F99  2FFF               	goto	l459
  3145  0F9A                     l1970:	
  3146  0F9A  083A               	movf	___fltol@f1,w
  3147  0F9B  00BE               	movwf	??___fltol
  3148  0F9C  083B               	movf	___fltol@f1+1,w
  3149  0F9D  00BF               	movwf	??___fltol+1
  3150  0F9E  083C               	movf	___fltol@f1+2,w
  3151  0F9F  00C0               	movwf	??___fltol+2
  3152  0FA0  083D               	movf	___fltol@f1+3,w
  3153  0FA1  00C1               	movwf	??___fltol+3
  3154  0FA2  301F               	movlw	31
  3155  0FA3                     u2025:	
  3156  0FA3  1003               	clrc
  3157  0FA4  0CC1               	rrf	??___fltol+3,f
  3158  0FA5  0CC0               	rrf	??___fltol+2,f
  3159  0FA6  0CBF               	rrf	??___fltol+1,f
  3160  0FA7  0CBE               	rrf	??___fltol,f
  3161  0FA8                     u2020:	
  3162  0FA8  3EFF               	addlw	-1
  3163  0FA9  1D03               	skipz
  3164  0FAA  2FA3               	goto	u2025
  3165  0FAB  083E               	movf	??___fltol,w
  3166  0FAC  00C2               	movwf	??___fltol+4
  3167  0FAD  0842               	movf	??___fltol+4,w
  3168  0FAE  00C3               	movwf	___fltol@sign1
  3169  0FAF                     l1972:	
  3170  0FAF  17BC               	bsf	___fltol@f1+2,7
  3171  0FB0                     l1974:	
  3172  0FB0  30FF               	movlw	255
  3173  0FB1  05BA               	andwf	___fltol@f1,f
  3174  0FB2  30FF               	movlw	255
  3175  0FB3  05BB               	andwf	___fltol@f1+1,f
  3176  0FB4  30FF               	movlw	255
  3177  0FB5  05BC               	andwf	___fltol@f1+2,f
  3178  0FB6  3000               	movlw	0
  3179  0FB7  05BD               	andwf	___fltol@f1+3,f
  3180  0FB8                     l1976:	
  3181  0FB8  3096               	movlw	150
  3182  0FB9  02C4               	subwf	___fltol@exp1,f
  3183  0FBA                     l1978:	
  3184  0FBA  1FC4               	btfss	___fltol@exp1,7
  3185  0FBB  2FBD               	goto	u2031
  3186  0FBC  2FBE               	goto	u2030
  3187  0FBD                     u2031:	
  3188  0FBD  2FD8               	goto	l1988
  3189  0FBE                     u2030:	
  3190  0FBE                     l1980:	
  3191  0FBE  0844               	movf	___fltol@exp1,w
  3192  0FBF  3A80               	xorlw	128
  3193  0FC0  3E97               	addlw	151
  3194  0FC1  1803               	skipnc
  3195  0FC2  2FC4               	goto	u2041
  3196  0FC3  2FC5               	goto	u2040
  3197  0FC4                     u2041:	
  3198  0FC4  2FC6               	goto	l1986
  3199  0FC5                     u2040:	
  3200  0FC5  2F91               	goto	l1966
  3201  0FC6                     l1986:	
  3202  0FC6  3001               	movlw	1
  3203  0FC7                     u2055:	
  3204  0FC7  1003               	clrc
  3205  0FC8  0CBD               	rrf	___fltol@f1+3,f
  3206  0FC9  0CBC               	rrf	___fltol@f1+2,f
  3207  0FCA  0CBB               	rrf	___fltol@f1+1,f
  3208  0FCB  0CBA               	rrf	___fltol@f1,f
  3209  0FCC  3EFF               	addlw	-1
  3210  0FCD  1D03               	skipz
  3211  0FCE  2FC7               	goto	u2055
  3212  0FCF  3001               	movlw	1
  3213  0FD0  00BE               	movwf	??___fltol
  3214  0FD1  083E               	movf	??___fltol,w
  3215  0FD2  07C4               	addwf	___fltol@exp1,f
  3216  0FD3  1D03               	btfss	3,2
  3217  0FD4  2FD6               	goto	u2061
  3218  0FD5  2FD7               	goto	u2060
  3219  0FD6                     u2061:	
  3220  0FD6  2FC6               	goto	l1986
  3221  0FD7                     u2060:	
  3222  0FD7  2FEF               	goto	l1996
  3223  0FD8                     l1988:	
  3224  0FD8  3020               	movlw	32
  3225  0FD9  0244               	subwf	___fltol@exp1,w
  3226  0FDA  1C03               	skipc
  3227  0FDB  2FDD               	goto	u2071
  3228  0FDC  2FDE               	goto	u2070
  3229  0FDD                     u2071:	
  3230  0FDD  2FEA               	goto	l466
  3231  0FDE                     u2070:	
  3232  0FDE  2F91               	goto	l1966
  3233  0FDF                     l1994:	
  3234  0FDF  3001               	movlw	1
  3235  0FE0  00BE               	movwf	??___fltol
  3236  0FE1                     u2085:	
  3237  0FE1  1003               	clrc
  3238  0FE2  0DBA               	rlf	___fltol@f1,f
  3239  0FE3  0DBB               	rlf	___fltol@f1+1,f
  3240  0FE4  0DBC               	rlf	___fltol@f1+2,f
  3241  0FE5  0DBD               	rlf	___fltol@f1+3,f
  3242  0FE6  0BBE               	decfsz	??___fltol,f
  3243  0FE7  2FE1               	goto	u2085
  3244  0FE8  3001               	movlw	1
  3245  0FE9  02C4               	subwf	___fltol@exp1,f
  3246  0FEA                     l466:	
  3247  0FEA  0844               	movf	___fltol@exp1,w
  3248  0FEB  1D03               	btfss	3,2
  3249  0FEC  2FEE               	goto	u2091
  3250  0FED  2FEF               	goto	u2090
  3251  0FEE                     u2091:	
  3252  0FEE  2FDF               	goto	l1994
  3253  0FEF                     u2090:	
  3254  0FEF                     l1996:	
  3255  0FEF  0843               	movf	___fltol@sign1,w
  3256  0FF0  1903               	btfsc	3,2
  3257  0FF1  2FF3               	goto	u2101
  3258  0FF2  2FF4               	goto	u2100
  3259  0FF3                     u2101:	
  3260  0FF3  2FFF               	goto	l469
  3261  0FF4                     u2100:	
  3262  0FF4                     l1998:	
  3263  0FF4  09BA               	comf	___fltol@f1,f
  3264  0FF5  09BB               	comf	___fltol@f1+1,f
  3265  0FF6  09BC               	comf	___fltol@f1+2,f
  3266  0FF7  09BD               	comf	___fltol@f1+3,f
  3267  0FF8  0ABA               	incf	___fltol@f1,f
  3268  0FF9  1903               	skipnz
  3269  0FFA  0ABB               	incf	___fltol@f1+1,f
  3270  0FFB  1903               	skipnz
  3271  0FFC  0ABC               	incf	___fltol@f1+2,f
  3272  0FFD  1903               	skipnz
  3273  0FFE  0ABD               	incf	___fltol@f1+3,f
  3274  0FFF                     l469:	
  3275  0FFF                     l459:	
  3276  0FFF  0008               	return
  3277  1000                     __end_of___fltol:	
  3278                           
  3279                           	psect	text15
  3280  048A                     __ptext15:	
  3281 ;; *************** function ___flmul *****************
  3282 ;; Defined at:
  3283 ;;		line 8 in file "C:\Program Files (x86)\Microchip\xc8\v2.10\pic\sources\c90\common\sprcmul.c"
  3284 ;; Parameters:    Size  Location     Type
  3285 ;;  b               4    0[BANK0 ] long 
  3286 ;;  a               4    4[BANK0 ] long 
  3287 ;; Auto vars:     Size  Location     Type
  3288 ;;  prod            4   20[BANK0 ] struct .
  3289 ;;  grs             4   14[BANK0 ] unsigned long 
  3290 ;;  temp            2   24[BANK0 ] struct .
  3291 ;;  bexp            1   19[BANK0 ] unsigned char 
  3292 ;;  aexp            1   18[BANK0 ] unsigned char 
  3293 ;;  sign            1   13[BANK0 ] unsigned char 
  3294 ;; Return value:  Size  Location     Type
  3295 ;;                  4    0[BANK0 ] unsigned char 
  3296 ;; Registers used:
  3297 ;;		wreg, status,2, status,0, btemp+1, pclath, cstack
  3298 ;; Tracked objects:
  3299 ;;		On entry : 0/0
  3300 ;;		On exit  : 0/0
  3301 ;;		Unchanged: 0/0
  3302 ;; Data sizes:     COMMON   BANK0   BANK1   BANK3   BANK2
  3303 ;;      Params:         0       8       0       0       0
  3304 ;;      Locals:         0      13       0       0       0
  3305 ;;      Temps:          0       5       0       0       0
  3306 ;;      Totals:         0      26       0       0       0
  3307 ;;Total ram usage:       26 bytes
  3308 ;; Hardware stack levels used:    1
  3309 ;; Hardware stack levels required when called:    1
  3310 ;; This function calls:
  3311 ;;		__Umul8_16
  3312 ;; This function is called by:
  3313 ;;		_main
  3314 ;; This function uses a non-reentrant model
  3315 ;;
  3316                           
  3317                           
  3318                           ;psect for function ___flmul
  3319  048A                     ___flmul:	
  3320  048A                     l2142:	
  3321                           ;incstack = 0
  3322                           ; Regs used in ___flmul: [wreg+status,2+status,0+btemp+1+pclath+cstack]
  3323                           
  3324  048A  1283               	bcf	3,5	;RP0=0, select bank0
  3325  048B  1303               	bcf	3,6	;RP1=0, select bank0
  3326  048C  0823               	movf	___flmul@b+3,w
  3327  048D  3980               	andlw	128
  3328  048E  00A8               	movwf	??___flmul
  3329  048F  0828               	movf	??___flmul,w
  3330  0490  00AD               	movwf	___flmul@sign
  3331  0491                     l2144:	
  3332  0491  0823               	movf	___flmul@b+3,w
  3333  0492  00A8               	movwf	??___flmul
  3334  0493  0728               	addwf	??___flmul,w
  3335  0494  00A9               	movwf	??___flmul+1
  3336  0495  0829               	movf	??___flmul+1,w
  3337  0496  00B3               	movwf	___flmul@bexp
  3338  0497                     l2146:	
  3339  0497  1FA2               	btfss	___flmul@b+2,7
  3340  0498  2C9A               	goto	u2401
  3341  0499  2C9B               	goto	u2400
  3342  049A                     u2401:	
  3343  049A  2C9C               	goto	l2150
  3344  049B                     u2400:	
  3345  049B                     l2148:	
  3346  049B  1433               	bsf	___flmul@bexp,0
  3347  049C                     l2150:	
  3348  049C  0833               	movf	___flmul@bexp,w
  3349  049D  1903               	btfsc	3,2
  3350  049E  2CA0               	goto	u2411
  3351  049F  2CA1               	goto	u2410
  3352  04A0                     u2411:	
  3353  04A0  2CB0               	goto	l2158
  3354  04A1                     u2410:	
  3355  04A1                     l2152:	
  3356  04A1  0A33               	incf	___flmul@bexp,w
  3357  04A2  1D03               	btfss	3,2
  3358  04A3  2CA5               	goto	u2421
  3359  04A4  2CA6               	goto	u2420
  3360  04A5                     u2421:	
  3361  04A5  2CAE               	goto	l2156
  3362  04A6                     u2420:	
  3363  04A6                     l2154:	
  3364  04A6  3000               	movlw	0
  3365  04A7  00A3               	movwf	___flmul@b+3
  3366  04A8  3000               	movlw	0
  3367  04A9  00A2               	movwf	___flmul@b+2
  3368  04AA  3000               	movlw	0
  3369  04AB  00A1               	movwf	___flmul@b+1
  3370  04AC  3000               	movlw	0
  3371  04AD  00A0               	movwf	___flmul@b
  3372  04AE                     l2156:	
  3373  04AE  17A2               	bsf	___flmul@b+2,7
  3374  04AF  2CB8               	goto	l2160
  3375  04B0                     l2158:	
  3376  04B0  3000               	movlw	0
  3377  04B1  00A3               	movwf	___flmul@b+3
  3378  04B2  3000               	movlw	0
  3379  04B3  00A2               	movwf	___flmul@b+2
  3380  04B4  3000               	movlw	0
  3381  04B5  00A1               	movwf	___flmul@b+1
  3382  04B6  3000               	movlw	0
  3383  04B7  00A0               	movwf	___flmul@b
  3384  04B8                     l2160:	
  3385  04B8  0827               	movf	___flmul@a+3,w
  3386  04B9  3980               	andlw	128
  3387  04BA  00A8               	movwf	??___flmul
  3388  04BB  0828               	movf	??___flmul,w
  3389  04BC  06AD               	xorwf	___flmul@sign,f
  3390  04BD                     l2162:	
  3391  04BD  0827               	movf	___flmul@a+3,w
  3392  04BE  00A8               	movwf	??___flmul
  3393  04BF  0728               	addwf	??___flmul,w
  3394  04C0  00A9               	movwf	??___flmul+1
  3395  04C1  0829               	movf	??___flmul+1,w
  3396  04C2  00B2               	movwf	___flmul@aexp
  3397  04C3                     l2164:	
  3398  04C3  1FA6               	btfss	___flmul@a+2,7
  3399  04C4  2CC6               	goto	u2431
  3400  04C5  2CC7               	goto	u2430
  3401  04C6                     u2431:	
  3402  04C6  2CC8               	goto	l2168
  3403  04C7                     u2430:	
  3404  04C7                     l2166:	
  3405  04C7  1432               	bsf	___flmul@aexp,0
  3406  04C8                     l2168:	
  3407  04C8  0832               	movf	___flmul@aexp,w
  3408  04C9  1903               	btfsc	3,2
  3409  04CA  2CCC               	goto	u2441
  3410  04CB  2CCD               	goto	u2440
  3411  04CC                     u2441:	
  3412  04CC  2CDC               	goto	l2176
  3413  04CD                     u2440:	
  3414  04CD                     l2170:	
  3415  04CD  0A32               	incf	___flmul@aexp,w
  3416  04CE  1D03               	btfss	3,2
  3417  04CF  2CD1               	goto	u2451
  3418  04D0  2CD2               	goto	u2450
  3419  04D1                     u2451:	
  3420  04D1  2CDA               	goto	l2174
  3421  04D2                     u2450:	
  3422  04D2                     l2172:	
  3423  04D2  3000               	movlw	0
  3424  04D3  00A7               	movwf	___flmul@a+3
  3425  04D4  3000               	movlw	0
  3426  04D5  00A6               	movwf	___flmul@a+2
  3427  04D6  3000               	movlw	0
  3428  04D7  00A5               	movwf	___flmul@a+1
  3429  04D8  3000               	movlw	0
  3430  04D9  00A4               	movwf	___flmul@a
  3431  04DA                     l2174:	
  3432  04DA  17A6               	bsf	___flmul@a+2,7
  3433  04DB  2CE4               	goto	l2178
  3434  04DC                     l2176:	
  3435  04DC  3000               	movlw	0
  3436  04DD  00A7               	movwf	___flmul@a+3
  3437  04DE  3000               	movlw	0
  3438  04DF  00A6               	movwf	___flmul@a+2
  3439  04E0  3000               	movlw	0
  3440  04E1  00A5               	movwf	___flmul@a+1
  3441  04E2  3000               	movlw	0
  3442  04E3  00A4               	movwf	___flmul@a
  3443  04E4                     l2178:	
  3444  04E4  0832               	movf	___flmul@aexp,w
  3445  04E5  1903               	btfsc	3,2
  3446  04E6  2CE8               	goto	u2461
  3447  04E7  2CE9               	goto	u2460
  3448  04E8                     u2461:	
  3449  04E8  2CEE               	goto	l2182
  3450  04E9                     u2460:	
  3451  04E9                     l2180:	
  3452  04E9  0833               	movf	___flmul@bexp,w
  3453  04EA  1D03               	btfss	3,2
  3454  04EB  2CED               	goto	u2471
  3455  04EC  2CEE               	goto	u2470
  3456  04ED                     u2471:	
  3457  04ED  2CF7               	goto	l2186
  3458  04EE                     u2470:	
  3459  04EE                     l2182:	
  3460  04EE  3000               	movlw	0
  3461  04EF  00A3               	movwf	?___flmul+3
  3462  04F0  3000               	movlw	0
  3463  04F1  00A2               	movwf	?___flmul+2
  3464  04F2  3000               	movlw	0
  3465  04F3  00A1               	movwf	?___flmul+1
  3466  04F4  3000               	movlw	0
  3467  04F5  00A0               	movwf	?___flmul
  3468  04F6  2FEA               	goto	l662
  3469  04F7                     l2186:	
  3470  04F7  0820               	movf	___flmul@b,w
  3471  04F8  00A8               	movwf	??___flmul
  3472  04F9  0828               	movf	??___flmul,w
  3473  04FA  00F0               	movwf	__Umul8_16@multiplicand
  3474  04FB  0826               	movf	___flmul@a+2,w
  3475  04FC  120A  158A  248D  120A  118A  	fcall	__Umul8_16
  3476  0501  0871               	movf	?__Umul8_16+1,w
  3477  0502  1283               	bcf	3,5	;RP0=0, select bank0
  3478  0503  1303               	bcf	3,6	;RP1=0, select bank0
  3479  0504  00B9               	movwf	___flmul@temp+1
  3480  0505  0870               	movf	?__Umul8_16,w
  3481  0506  00B8               	movwf	___flmul@temp
  3482  0507                     l2188:	
  3483  0507  0838               	movf	___flmul@temp,w
  3484  0508  00A8               	movwf	??___flmul
  3485  0509  01A9               	clrf	??___flmul+1
  3486  050A  01AA               	clrf	??___flmul+2
  3487  050B  01AB               	clrf	??___flmul+3
  3488  050C  082B               	movf	??___flmul+3,w
  3489  050D  00B1               	movwf	___flmul@grs+3
  3490  050E  082A               	movf	??___flmul+2,w
  3491  050F  00B0               	movwf	___flmul@grs+2
  3492  0510  0829               	movf	??___flmul+1,w
  3493  0511  00AF               	movwf	___flmul@grs+1
  3494  0512  0828               	movf	??___flmul,w
  3495  0513  00AE               	movwf	___flmul@grs
  3496  0514                     l2190:	
  3497  0514  0839               	movf	___flmul@temp+1,w
  3498  0515  00A8               	movwf	??___flmul
  3499  0516  01A9               	clrf	??___flmul+1
  3500  0517  01AA               	clrf	??___flmul+2
  3501  0518  01AB               	clrf	??___flmul+3
  3502  0519  082B               	movf	??___flmul+3,w
  3503  051A  00B7               	movwf	___flmul@prod+3
  3504  051B  082A               	movf	??___flmul+2,w
  3505  051C  00B6               	movwf	___flmul@prod+2
  3506  051D  0829               	movf	??___flmul+1,w
  3507  051E  00B5               	movwf	___flmul@prod+1
  3508  051F  0828               	movf	??___flmul,w
  3509  0520  00B4               	movwf	___flmul@prod
  3510  0521  0821               	movf	___flmul@b+1,w
  3511  0522  00A8               	movwf	??___flmul
  3512  0523  0828               	movf	??___flmul,w
  3513  0524  00F0               	movwf	__Umul8_16@multiplicand
  3514  0525  0825               	movf	___flmul@a+1,w
  3515  0526  120A  158A  248D  120A  118A  	fcall	__Umul8_16
  3516  052B  0871               	movf	?__Umul8_16+1,w
  3517  052C  1283               	bcf	3,5	;RP0=0, select bank0
  3518  052D  1303               	bcf	3,6	;RP1=0, select bank0
  3519  052E  00B9               	movwf	___flmul@temp+1
  3520  052F  0870               	movf	?__Umul8_16,w
  3521  0530  00B8               	movwf	___flmul@temp
  3522  0531                     l2192:	
  3523  0531  0838               	movf	___flmul@temp,w
  3524  0532  00A8               	movwf	??___flmul
  3525  0533  01A9               	clrf	??___flmul+1
  3526  0534  01AA               	clrf	??___flmul+2
  3527  0535  01AB               	clrf	??___flmul+3
  3528  0536  0828               	movf	??___flmul,w
  3529  0537  07AE               	addwf	___flmul@grs,f
  3530  0538  0829               	movf	??___flmul+1,w
  3531  0539  1103               	clrz
  3532  053A  1803               	skipnc
  3533  053B  3E01               	addlw	1
  3534  053C  1903               	skipnz
  3535  053D  2D3F               	goto	u2481
  3536  053E  07AF               	addwf	___flmul@grs+1,f
  3537  053F                     u2481:	
  3538  053F  082A               	movf	??___flmul+2,w
  3539  0540  1103               	clrz
  3540  0541  1803               	skipnc
  3541  0542  3E01               	addlw	1
  3542  0543  1903               	skipnz
  3543  0544  2D46               	goto	u2482
  3544  0545  07B0               	addwf	___flmul@grs+2,f
  3545  0546                     u2482:	
  3546  0546  082B               	movf	??___flmul+3,w
  3547  0547  1103               	clrz
  3548  0548  1803               	skipnc
  3549  0549  3E01               	addlw	1
  3550  054A  1903               	skipnz
  3551  054B  2D4D               	goto	u2483
  3552  054C  07B1               	addwf	___flmul@grs+3,f
  3553  054D                     u2483:	
  3554  054D                     l2194:	
  3555  054D  0839               	movf	___flmul@temp+1,w
  3556  054E  00A8               	movwf	??___flmul
  3557  054F  01A9               	clrf	??___flmul+1
  3558  0550  01AA               	clrf	??___flmul+2
  3559  0551  01AB               	clrf	??___flmul+3
  3560  0552  0828               	movf	??___flmul,w
  3561  0553  07B4               	addwf	___flmul@prod,f
  3562  0554  0829               	movf	??___flmul+1,w
  3563  0555  1103               	clrz
  3564  0556  1803               	skipnc
  3565  0557  3E01               	addlw	1
  3566  0558  1903               	skipnz
  3567  0559  2D5B               	goto	u2491
  3568  055A  07B5               	addwf	___flmul@prod+1,f
  3569  055B                     u2491:	
  3570  055B  082A               	movf	??___flmul+2,w
  3571  055C  1103               	clrz
  3572  055D  1803               	skipnc
  3573  055E  3E01               	addlw	1
  3574  055F  1903               	skipnz
  3575  0560  2D62               	goto	u2492
  3576  0561  07B6               	addwf	___flmul@prod+2,f
  3577  0562                     u2492:	
  3578  0562  082B               	movf	??___flmul+3,w
  3579  0563  1103               	clrz
  3580  0564  1803               	skipnc
  3581  0565  3E01               	addlw	1
  3582  0566  1903               	skipnz
  3583  0567  2D69               	goto	u2493
  3584  0568  07B7               	addwf	___flmul@prod+3,f
  3585  0569                     u2493:	
  3586  0569  0822               	movf	___flmul@b+2,w
  3587  056A  00A8               	movwf	??___flmul
  3588  056B  0828               	movf	??___flmul,w
  3589  056C  00F0               	movwf	__Umul8_16@multiplicand
  3590  056D  0824               	movf	___flmul@a,w
  3591  056E  120A  158A  248D  120A  118A  	fcall	__Umul8_16
  3592  0573  0871               	movf	?__Umul8_16+1,w
  3593  0574  1283               	bcf	3,5	;RP0=0, select bank0
  3594  0575  1303               	bcf	3,6	;RP1=0, select bank0
  3595  0576  00B9               	movwf	___flmul@temp+1
  3596  0577  0870               	movf	?__Umul8_16,w
  3597  0578  00B8               	movwf	___flmul@temp
  3598  0579                     l2196:	
  3599  0579  0838               	movf	___flmul@temp,w
  3600  057A  00A8               	movwf	??___flmul
  3601  057B  01A9               	clrf	??___flmul+1
  3602  057C  01AA               	clrf	??___flmul+2
  3603  057D  01AB               	clrf	??___flmul+3
  3604  057E  0828               	movf	??___flmul,w
  3605  057F  07AE               	addwf	___flmul@grs,f
  3606  0580  0829               	movf	??___flmul+1,w
  3607  0581  1103               	clrz
  3608  0582  1803               	skipnc
  3609  0583  3E01               	addlw	1
  3610  0584  1903               	skipnz
  3611  0585  2D87               	goto	u2501
  3612  0586  07AF               	addwf	___flmul@grs+1,f
  3613  0587                     u2501:	
  3614  0587  082A               	movf	??___flmul+2,w
  3615  0588  1103               	clrz
  3616  0589  1803               	skipnc
  3617  058A  3E01               	addlw	1
  3618  058B  1903               	skipnz
  3619  058C  2D8E               	goto	u2502
  3620  058D  07B0               	addwf	___flmul@grs+2,f
  3621  058E                     u2502:	
  3622  058E  082B               	movf	??___flmul+3,w
  3623  058F  1103               	clrz
  3624  0590  1803               	skipnc
  3625  0591  3E01               	addlw	1
  3626  0592  1903               	skipnz
  3627  0593  2D95               	goto	u2503
  3628  0594  07B1               	addwf	___flmul@grs+3,f
  3629  0595                     u2503:	
  3630  0595                     l2198:	
  3631  0595  0839               	movf	___flmul@temp+1,w
  3632  0596  00A8               	movwf	??___flmul
  3633  0597  01A9               	clrf	??___flmul+1
  3634  0598  01AA               	clrf	??___flmul+2
  3635  0599  01AB               	clrf	??___flmul+3
  3636  059A  0828               	movf	??___flmul,w
  3637  059B  07B4               	addwf	___flmul@prod,f
  3638  059C  0829               	movf	??___flmul+1,w
  3639  059D  1103               	clrz
  3640  059E  1803               	skipnc
  3641  059F  3E01               	addlw	1
  3642  05A0  1903               	skipnz
  3643  05A1  2DA3               	goto	u2511
  3644  05A2  07B5               	addwf	___flmul@prod+1,f
  3645  05A3                     u2511:	
  3646  05A3  082A               	movf	??___flmul+2,w
  3647  05A4  1103               	clrz
  3648  05A5  1803               	skipnc
  3649  05A6  3E01               	addlw	1
  3650  05A7  1903               	skipnz
  3651  05A8  2DAA               	goto	u2512
  3652  05A9  07B6               	addwf	___flmul@prod+2,f
  3653  05AA                     u2512:	
  3654  05AA  082B               	movf	??___flmul+3,w
  3655  05AB  1103               	clrz
  3656  05AC  1803               	skipnc
  3657  05AD  3E01               	addlw	1
  3658  05AE  1903               	skipnz
  3659  05AF  2DB1               	goto	u2513
  3660  05B0  07B7               	addwf	___flmul@prod+3,f
  3661  05B1                     u2513:	
  3662  05B1                     l2200:	
  3663  05B1  3008               	movlw	8
  3664  05B2  00A8               	movwf	??___flmul
  3665  05B3                     u2525:	
  3666  05B3  1003               	clrc
  3667  05B4  0DAE               	rlf	___flmul@grs,f
  3668  05B5  0DAF               	rlf	___flmul@grs+1,f
  3669  05B6  0DB0               	rlf	___flmul@grs+2,f
  3670  05B7  0DB1               	rlf	___flmul@grs+3,f
  3671  05B8  0BA8               	decfsz	??___flmul,f
  3672  05B9  2DB3               	goto	u2525
  3673  05BA                     l2202:	
  3674  05BA  0821               	movf	___flmul@b+1,w
  3675  05BB  00A8               	movwf	??___flmul
  3676  05BC  0828               	movf	??___flmul,w
  3677  05BD  00F0               	movwf	__Umul8_16@multiplicand
  3678  05BE  0824               	movf	___flmul@a,w
  3679  05BF  120A  158A  248D  120A  118A  	fcall	__Umul8_16
  3680  05C4  0871               	movf	?__Umul8_16+1,w
  3681  05C5  1283               	bcf	3,5	;RP0=0, select bank0
  3682  05C6  1303               	bcf	3,6	;RP1=0, select bank0
  3683  05C7  00B9               	movwf	___flmul@temp+1
  3684  05C8  0870               	movf	?__Umul8_16,w
  3685  05C9  00B8               	movwf	___flmul@temp
  3686  05CA                     l2204:	
  3687  05CA  0838               	movf	___flmul@temp,w
  3688  05CB  00A8               	movwf	??___flmul
  3689  05CC  0839               	movf	___flmul@temp+1,w
  3690  05CD  00A9               	movwf	??___flmul+1
  3691  05CE  01AA               	clrf	??___flmul+2
  3692  05CF  01AB               	clrf	??___flmul+3
  3693  05D0  0828               	movf	??___flmul,w
  3694  05D1  07AE               	addwf	___flmul@grs,f
  3695  05D2  0829               	movf	??___flmul+1,w
  3696  05D3  1103               	clrz
  3697  05D4  1803               	skipnc
  3698  05D5  3E01               	addlw	1
  3699  05D6  1903               	skipnz
  3700  05D7  2DD9               	goto	u2531
  3701  05D8  07AF               	addwf	___flmul@grs+1,f
  3702  05D9                     u2531:	
  3703  05D9  082A               	movf	??___flmul+2,w
  3704  05DA  1103               	clrz
  3705  05DB  1803               	skipnc
  3706  05DC  3E01               	addlw	1
  3707  05DD  1903               	skipnz
  3708  05DE  2DE0               	goto	u2532
  3709  05DF  07B0               	addwf	___flmul@grs+2,f
  3710  05E0                     u2532:	
  3711  05E0  082B               	movf	??___flmul+3,w
  3712  05E1  1103               	clrz
  3713  05E2  1803               	skipnc
  3714  05E3  3E01               	addlw	1
  3715  05E4  1903               	skipnz
  3716  05E5  2DE7               	goto	u2533
  3717  05E6  07B1               	addwf	___flmul@grs+3,f
  3718  05E7                     u2533:	
  3719  05E7                     l2206:	
  3720  05E7  0820               	movf	___flmul@b,w
  3721  05E8  00A8               	movwf	??___flmul
  3722  05E9  0828               	movf	??___flmul,w
  3723  05EA  00F0               	movwf	__Umul8_16@multiplicand
  3724  05EB  0825               	movf	___flmul@a+1,w
  3725  05EC  120A  158A  248D  120A  118A  	fcall	__Umul8_16
  3726  05F1  0871               	movf	?__Umul8_16+1,w
  3727  05F2  1283               	bcf	3,5	;RP0=0, select bank0
  3728  05F3  1303               	bcf	3,6	;RP1=0, select bank0
  3729  05F4  00B9               	movwf	___flmul@temp+1
  3730  05F5  0870               	movf	?__Umul8_16,w
  3731  05F6  00B8               	movwf	___flmul@temp
  3732  05F7                     l2208:	
  3733  05F7  0838               	movf	___flmul@temp,w
  3734  05F8  00A8               	movwf	??___flmul
  3735  05F9  0839               	movf	___flmul@temp+1,w
  3736  05FA  00A9               	movwf	??___flmul+1
  3737  05FB  01AA               	clrf	??___flmul+2
  3738  05FC  01AB               	clrf	??___flmul+3
  3739  05FD  0828               	movf	??___flmul,w
  3740  05FE  07AE               	addwf	___flmul@grs,f
  3741  05FF  0829               	movf	??___flmul+1,w
  3742  0600  1103               	clrz
  3743  0601  1803               	skipnc
  3744  0602  3E01               	addlw	1
  3745  0603  1903               	skipnz
  3746  0604  2E06               	goto	u2541
  3747  0605  07AF               	addwf	___flmul@grs+1,f
  3748  0606                     u2541:	
  3749  0606  082A               	movf	??___flmul+2,w
  3750  0607  1103               	clrz
  3751  0608  1803               	skipnc
  3752  0609  3E01               	addlw	1
  3753  060A  1903               	skipnz
  3754  060B  2E0D               	goto	u2542
  3755  060C  07B0               	addwf	___flmul@grs+2,f
  3756  060D                     u2542:	
  3757  060D  082B               	movf	??___flmul+3,w
  3758  060E  1103               	clrz
  3759  060F  1803               	skipnc
  3760  0610  3E01               	addlw	1
  3761  0611  1903               	skipnz
  3762  0612  2E14               	goto	u2543
  3763  0613  07B1               	addwf	___flmul@grs+3,f
  3764  0614                     u2543:	
  3765  0614                     l2210:	
  3766  0614  3008               	movlw	8
  3767  0615  00A8               	movwf	??___flmul
  3768  0616                     u2555:	
  3769  0616  1003               	clrc
  3770  0617  0DAE               	rlf	___flmul@grs,f
  3771  0618  0DAF               	rlf	___flmul@grs+1,f
  3772  0619  0DB0               	rlf	___flmul@grs+2,f
  3773  061A  0DB1               	rlf	___flmul@grs+3,f
  3774  061B  0BA8               	decfsz	??___flmul,f
  3775  061C  2E16               	goto	u2555
  3776  061D  0820               	movf	___flmul@b,w
  3777  061E  00A8               	movwf	??___flmul
  3778  061F  0828               	movf	??___flmul,w
  3779  0620  00F0               	movwf	__Umul8_16@multiplicand
  3780  0621  0824               	movf	___flmul@a,w
  3781  0622  120A  158A  248D  120A  118A  	fcall	__Umul8_16
  3782  0627  0871               	movf	?__Umul8_16+1,w
  3783  0628  1283               	bcf	3,5	;RP0=0, select bank0
  3784  0629  1303               	bcf	3,6	;RP1=0, select bank0
  3785  062A  00B9               	movwf	___flmul@temp+1
  3786  062B  0870               	movf	?__Umul8_16,w
  3787  062C  00B8               	movwf	___flmul@temp
  3788  062D                     l2212:	
  3789  062D  0838               	movf	___flmul@temp,w
  3790  062E  00A8               	movwf	??___flmul
  3791  062F  0839               	movf	___flmul@temp+1,w
  3792  0630  00A9               	movwf	??___flmul+1
  3793  0631  01AA               	clrf	??___flmul+2
  3794  0632  01AB               	clrf	??___flmul+3
  3795  0633  0828               	movf	??___flmul,w
  3796  0634  07AE               	addwf	___flmul@grs,f
  3797  0635  0829               	movf	??___flmul+1,w
  3798  0636  1103               	clrz
  3799  0637  1803               	skipnc
  3800  0638  3E01               	addlw	1
  3801  0639  1903               	skipnz
  3802  063A  2E3C               	goto	u2561
  3803  063B  07AF               	addwf	___flmul@grs+1,f
  3804  063C                     u2561:	
  3805  063C  082A               	movf	??___flmul+2,w
  3806  063D  1103               	clrz
  3807  063E  1803               	skipnc
  3808  063F  3E01               	addlw	1
  3809  0640  1903               	skipnz
  3810  0641  2E43               	goto	u2562
  3811  0642  07B0               	addwf	___flmul@grs+2,f
  3812  0643                     u2562:	
  3813  0643  082B               	movf	??___flmul+3,w
  3814  0644  1103               	clrz
  3815  0645  1803               	skipnc
  3816  0646  3E01               	addlw	1
  3817  0647  1903               	skipnz
  3818  0648  2E4A               	goto	u2563
  3819  0649  07B1               	addwf	___flmul@grs+3,f
  3820  064A                     u2563:	
  3821  064A                     l2214:	
  3822  064A  0821               	movf	___flmul@b+1,w
  3823  064B  00A8               	movwf	??___flmul
  3824  064C  0828               	movf	??___flmul,w
  3825  064D  00F0               	movwf	__Umul8_16@multiplicand
  3826  064E  0826               	movf	___flmul@a+2,w
  3827  064F  120A  158A  248D  120A  118A  	fcall	__Umul8_16
  3828  0654  0871               	movf	?__Umul8_16+1,w
  3829  0655  1283               	bcf	3,5	;RP0=0, select bank0
  3830  0656  1303               	bcf	3,6	;RP1=0, select bank0
  3831  0657  00B9               	movwf	___flmul@temp+1
  3832  0658  0870               	movf	?__Umul8_16,w
  3833  0659  00B8               	movwf	___flmul@temp
  3834  065A  0838               	movf	___flmul@temp,w
  3835  065B  00A8               	movwf	??___flmul
  3836  065C  0839               	movf	___flmul@temp+1,w
  3837  065D  00A9               	movwf	??___flmul+1
  3838  065E  01AA               	clrf	??___flmul+2
  3839  065F  01AB               	clrf	??___flmul+3
  3840  0660  0828               	movf	??___flmul,w
  3841  0661  07B4               	addwf	___flmul@prod,f
  3842  0662  0829               	movf	??___flmul+1,w
  3843  0663  1103               	clrz
  3844  0664  1803               	skipnc
  3845  0665  3E01               	addlw	1
  3846  0666  1903               	skipnz
  3847  0667  2E69               	goto	u2571
  3848  0668  07B5               	addwf	___flmul@prod+1,f
  3849  0669                     u2571:	
  3850  0669  082A               	movf	??___flmul+2,w
  3851  066A  1103               	clrz
  3852  066B  1803               	skipnc
  3853  066C  3E01               	addlw	1
  3854  066D  1903               	skipnz
  3855  066E  2E70               	goto	u2572
  3856  066F  07B6               	addwf	___flmul@prod+2,f
  3857  0670                     u2572:	
  3858  0670  082B               	movf	??___flmul+3,w
  3859  0671  1103               	clrz
  3860  0672  1803               	skipnc
  3861  0673  3E01               	addlw	1
  3862  0674  1903               	skipnz
  3863  0675  2E77               	goto	u2573
  3864  0676  07B7               	addwf	___flmul@prod+3,f
  3865  0677                     u2573:	
  3866  0677                     l2216:	
  3867  0677  0822               	movf	___flmul@b+2,w
  3868  0678  00A8               	movwf	??___flmul
  3869  0679  0828               	movf	??___flmul,w
  3870  067A  00F0               	movwf	__Umul8_16@multiplicand
  3871  067B  0825               	movf	___flmul@a+1,w
  3872  067C  120A  158A  248D  120A  118A  	fcall	__Umul8_16
  3873  0681  0871               	movf	?__Umul8_16+1,w
  3874  0682  1283               	bcf	3,5	;RP0=0, select bank0
  3875  0683  1303               	bcf	3,6	;RP1=0, select bank0
  3876  0684  00B9               	movwf	___flmul@temp+1
  3877  0685  0870               	movf	?__Umul8_16,w
  3878  0686  00B8               	movwf	___flmul@temp
  3879  0687                     l2218:	
  3880  0687  0838               	movf	___flmul@temp,w
  3881  0688  00A8               	movwf	??___flmul
  3882  0689  0839               	movf	___flmul@temp+1,w
  3883  068A  00A9               	movwf	??___flmul+1
  3884  068B  01AA               	clrf	??___flmul+2
  3885  068C  01AB               	clrf	??___flmul+3
  3886  068D  0828               	movf	??___flmul,w
  3887  068E  07B4               	addwf	___flmul@prod,f
  3888  068F  0829               	movf	??___flmul+1,w
  3889  0690  1103               	clrz
  3890  0691  1803               	skipnc
  3891  0692  3E01               	addlw	1
  3892  0693  1903               	skipnz
  3893  0694  2E96               	goto	u2581
  3894  0695  07B5               	addwf	___flmul@prod+1,f
  3895  0696                     u2581:	
  3896  0696  082A               	movf	??___flmul+2,w
  3897  0697  1103               	clrz
  3898  0698  1803               	skipnc
  3899  0699  3E01               	addlw	1
  3900  069A  1903               	skipnz
  3901  069B  2E9D               	goto	u2582
  3902  069C  07B6               	addwf	___flmul@prod+2,f
  3903  069D                     u2582:	
  3904  069D  082B               	movf	??___flmul+3,w
  3905  069E  1103               	clrz
  3906  069F  1803               	skipnc
  3907  06A0  3E01               	addlw	1
  3908  06A1  1903               	skipnz
  3909  06A2  2EA4               	goto	u2583
  3910  06A3  07B7               	addwf	___flmul@prod+3,f
  3911  06A4                     u2583:	
  3912  06A4  0822               	movf	___flmul@b+2,w
  3913  06A5  00A8               	movwf	??___flmul
  3914  06A6  0828               	movf	??___flmul,w
  3915  06A7  00F0               	movwf	__Umul8_16@multiplicand
  3916  06A8  0826               	movf	___flmul@a+2,w
  3917  06A9  120A  158A  248D  120A  118A  	fcall	__Umul8_16
  3918  06AE  0871               	movf	?__Umul8_16+1,w
  3919  06AF  1283               	bcf	3,5	;RP0=0, select bank0
  3920  06B0  1303               	bcf	3,6	;RP1=0, select bank0
  3921  06B1  00B9               	movwf	___flmul@temp+1
  3922  06B2  0870               	movf	?__Umul8_16,w
  3923  06B3  00B8               	movwf	___flmul@temp
  3924  06B4                     l2220:	
  3925  06B4  0838               	movf	___flmul@temp,w
  3926  06B5  00A8               	movwf	??___flmul
  3927  06B6  0839               	movf	___flmul@temp+1,w
  3928  06B7  00A9               	movwf	??___flmul+1
  3929  06B8  01AA               	clrf	??___flmul+2
  3930  06B9  01AB               	clrf	??___flmul+3
  3931  06BA  3008               	movlw	8
  3932  06BB                     u2595:	
  3933  06BB  1003               	clrc
  3934  06BC  0DA8               	rlf	??___flmul,f
  3935  06BD  0DA9               	rlf	??___flmul+1,f
  3936  06BE  0DAA               	rlf	??___flmul+2,f
  3937  06BF  0DAB               	rlf	??___flmul+3,f
  3938  06C0                     u2590:	
  3939  06C0  3EFF               	addlw	-1
  3940  06C1  1D03               	skipz
  3941  06C2  2EBB               	goto	u2595
  3942  06C3  0828               	movf	??___flmul,w
  3943  06C4  07B4               	addwf	___flmul@prod,f
  3944  06C5  0829               	movf	??___flmul+1,w
  3945  06C6  1103               	clrz
  3946  06C7  1803               	skipnc
  3947  06C8  3E01               	addlw	1
  3948  06C9  1903               	skipnz
  3949  06CA  2ECC               	goto	u2601
  3950  06CB  07B5               	addwf	___flmul@prod+1,f
  3951  06CC                     u2601:	
  3952  06CC  082A               	movf	??___flmul+2,w
  3953  06CD  1103               	clrz
  3954  06CE  1803               	skipnc
  3955  06CF  3E01               	addlw	1
  3956  06D0  1903               	skipnz
  3957  06D1  2ED3               	goto	u2602
  3958  06D2  07B6               	addwf	___flmul@prod+2,f
  3959  06D3                     u2602:	
  3960  06D3  082B               	movf	??___flmul+3,w
  3961  06D4  1103               	clrz
  3962  06D5  1803               	skipnc
  3963  06D6  3E01               	addlw	1
  3964  06D7  1903               	skipnz
  3965  06D8  2EDA               	goto	u2603
  3966  06D9  07B7               	addwf	___flmul@prod+3,f
  3967  06DA                     u2603:	
  3968  06DA                     l2222:	
  3969  06DA  082E               	movf	___flmul@grs,w
  3970  06DB  00A8               	movwf	??___flmul
  3971  06DC  082F               	movf	___flmul@grs+1,w
  3972  06DD  00A9               	movwf	??___flmul+1
  3973  06DE  0830               	movf	___flmul@grs+2,w
  3974  06DF  00AA               	movwf	??___flmul+2
  3975  06E0  0831               	movf	___flmul@grs+3,w
  3976  06E1  00AB               	movwf	??___flmul+3
  3977  06E2  3018               	movlw	24
  3978  06E3                     u2615:	
  3979  06E3  1003               	clrc
  3980  06E4  0CAB               	rrf	??___flmul+3,f
  3981  06E5  0CAA               	rrf	??___flmul+2,f
  3982  06E6  0CA9               	rrf	??___flmul+1,f
  3983  06E7  0CA8               	rrf	??___flmul,f
  3984  06E8                     u2610:	
  3985  06E8  3EFF               	addlw	-1
  3986  06E9  1D03               	skipz
  3987  06EA  2EE3               	goto	u2615
  3988  06EB  0828               	movf	??___flmul,w
  3989  06EC  07B4               	addwf	___flmul@prod,f
  3990  06ED  0829               	movf	??___flmul+1,w
  3991  06EE  1103               	clrz
  3992  06EF  1803               	skipnc
  3993  06F0  3E01               	addlw	1
  3994  06F1  1903               	skipnz
  3995  06F2  2EF4               	goto	u2621
  3996  06F3  07B5               	addwf	___flmul@prod+1,f
  3997  06F4                     u2621:	
  3998  06F4  082A               	movf	??___flmul+2,w
  3999  06F5  1103               	clrz
  4000  06F6  1803               	skipnc
  4001  06F7  3E01               	addlw	1
  4002  06F8  1903               	skipnz
  4003  06F9  2EFB               	goto	u2622
  4004  06FA  07B6               	addwf	___flmul@prod+2,f
  4005  06FB                     u2622:	
  4006  06FB  082B               	movf	??___flmul+3,w
  4007  06FC  1103               	clrz
  4008  06FD  1803               	skipnc
  4009  06FE  3E01               	addlw	1
  4010  06FF  1903               	skipnz
  4011  0700  2F02               	goto	u2623
  4012  0701  07B7               	addwf	___flmul@prod+3,f
  4013  0702                     u2623:	
  4014  0702                     l2224:	
  4015  0702  3008               	movlw	8
  4016  0703  00A8               	movwf	??___flmul
  4017  0704                     u2635:	
  4018  0704  1003               	clrc
  4019  0705  0DAE               	rlf	___flmul@grs,f
  4020  0706  0DAF               	rlf	___flmul@grs+1,f
  4021  0707  0DB0               	rlf	___flmul@grs+2,f
  4022  0708  0DB1               	rlf	___flmul@grs+3,f
  4023  0709  0BA8               	decfsz	??___flmul,f
  4024  070A  2F04               	goto	u2635
  4025  070B                     l2226:	
  4026  070B  0833               	movf	___flmul@bexp,w
  4027  070C  0732               	addwf	___flmul@aexp,w
  4028  070D  00A8               	movwf	??___flmul
  4029  070E  01A9               	clrf	??___flmul+1
  4030  070F  0DA9               	rlf	??___flmul+1,f
  4031  0710  0828               	movf	??___flmul,w
  4032  0711  3E82               	addlw	130
  4033  0712  00B8               	movwf	___flmul@temp
  4034  0713  0829               	movf	??___flmul+1,w
  4035  0714  1803               	skipnc
  4036  0715  3E01               	addlw	1
  4037  0716  3EFF               	addlw	255
  4038  0717  00B9               	movwf	___flmul@temp+1
  4039  0718  2F36               	goto	l2238
  4040  0719                     l2228:	
  4041  0719  3001               	movlw	1
  4042  071A  00A8               	movwf	??___flmul
  4043  071B                     u2645:	
  4044  071B  1003               	clrc
  4045  071C  0DB4               	rlf	___flmul@prod,f
  4046  071D  0DB5               	rlf	___flmul@prod+1,f
  4047  071E  0DB6               	rlf	___flmul@prod+2,f
  4048  071F  0DB7               	rlf	___flmul@prod+3,f
  4049  0720  0BA8               	decfsz	??___flmul,f
  4050  0721  2F1B               	goto	u2645
  4051  0722                     l2230:	
  4052  0722  1FB1               	btfss	___flmul@grs+3,7
  4053  0723  2F25               	goto	u2651
  4054  0724  2F26               	goto	u2650
  4055  0725                     u2651:	
  4056  0725  2F27               	goto	l2234
  4057  0726                     u2650:	
  4058  0726                     l2232:	
  4059  0726  1434               	bsf	___flmul@prod,0
  4060  0727                     l2234:	
  4061  0727  3001               	movlw	1
  4062  0728  00A8               	movwf	??___flmul
  4063  0729                     u2665:	
  4064  0729  1003               	clrc
  4065  072A  0DAE               	rlf	___flmul@grs,f
  4066  072B  0DAF               	rlf	___flmul@grs+1,f
  4067  072C  0DB0               	rlf	___flmul@grs+2,f
  4068  072D  0DB1               	rlf	___flmul@grs+3,f
  4069  072E  0BA8               	decfsz	??___flmul,f
  4070  072F  2F29               	goto	u2665
  4071  0730                     l2236:	
  4072  0730  30FF               	movlw	255
  4073  0731  07B8               	addwf	___flmul@temp,f
  4074  0732  1803               	skipnc
  4075  0733  0AB9               	incf	___flmul@temp+1,f
  4076  0734  30FF               	movlw	255
  4077  0735  07B9               	addwf	___flmul@temp+1,f
  4078  0736                     l2238:	
  4079  0736  1FB6               	btfss	___flmul@prod+2,7
  4080  0737  2F39               	goto	u2671
  4081  0738  2F3A               	goto	u2670
  4082  0739                     u2671:	
  4083  0739  2F19               	goto	l2228
  4084  073A                     u2670:	
  4085  073A                     l2240:	
  4086  073A  01B2               	clrf	___flmul@aexp
  4087  073B                     l2242:	
  4088  073B  1FB1               	btfss	___flmul@grs+3,7
  4089  073C  2F3E               	goto	u2681
  4090  073D  2F3F               	goto	u2680
  4091  073E                     u2681:	
  4092  073E  2F5B               	goto	l2250
  4093  073F                     u2680:	
  4094  073F                     l2244:	
  4095  073F  30FF               	movlw	255
  4096  0740  052E               	andwf	___flmul@grs,w
  4097  0741  00A8               	movwf	??___flmul
  4098  0742  30FF               	movlw	255
  4099  0743  052F               	andwf	___flmul@grs+1,w
  4100  0744  00A9               	movwf	??___flmul+1
  4101  0745  30FF               	movlw	255
  4102  0746  0530               	andwf	___flmul@grs+2,w
  4103  0747  00AA               	movwf	??___flmul+2
  4104  0748  307F               	movlw	127
  4105  0749  0531               	andwf	___flmul@grs+3,w
  4106  074A  00AB               	movwf	??___flmul+3
  4107  074B  082B               	movf	??___flmul+3,w
  4108  074C  042A               	iorwf	??___flmul+2,w
  4109  074D  0429               	iorwf	??___flmul+1,w
  4110  074E  0428               	iorwf	??___flmul,w
  4111  074F  1903               	skipnz
  4112  0750  2F52               	goto	u2691
  4113  0751  2F53               	goto	u2690
  4114  0752                     u2691:	
  4115  0752  2F56               	goto	l668
  4116  0753                     u2690:	
  4117  0753                     l2246:	
  4118  0753  01B2               	clrf	___flmul@aexp
  4119  0754  0AB2               	incf	___flmul@aexp,f
  4120  0755  2F5B               	goto	l2250
  4121  0756                     l668:	
  4122  0756  1C34               	btfss	___flmul@prod,0
  4123  0757  2F59               	goto	u2701
  4124  0758  2F5A               	goto	u2700
  4125  0759                     u2701:	
  4126  0759  2F5B               	goto	l2250
  4127  075A                     u2700:	
  4128  075A  2F53               	goto	l2246
  4129  075B                     l2250:	
  4130  075B  0832               	movf	___flmul@aexp,w
  4131  075C  1903               	btfsc	3,2
  4132  075D  2F5F               	goto	u2711
  4133  075E  2F60               	goto	u2710
  4134  075F                     u2711:	
  4135  075F  2F91               	goto	l2260
  4136  0760                     u2710:	
  4137  0760                     l2252:	
  4138  0760  3001               	movlw	1
  4139  0761  07B4               	addwf	___flmul@prod,f
  4140  0762  3000               	movlw	0
  4141  0763  1803               	skipnc
  4142  0764  3001               	movlw	1
  4143  0765  07B5               	addwf	___flmul@prod+1,f
  4144  0766  3000               	movlw	0
  4145  0767  1803               	skipnc
  4146  0768  3001               	movlw	1
  4147  0769  07B6               	addwf	___flmul@prod+2,f
  4148  076A  3000               	movlw	0
  4149  076B  1803               	skipnc
  4150  076C  3001               	movlw	1
  4151  076D  07B7               	addwf	___flmul@prod+3,f
  4152  076E                     l2254:	
  4153  076E  1C37               	btfss	___flmul@prod+3,0
  4154  076F  2F71               	goto	u2721
  4155  0770  2F72               	goto	u2720
  4156  0771                     u2721:	
  4157  0771  2F91               	goto	l2260
  4158  0772                     u2720:	
  4159  0772                     l2256:	
  4160  0772  0834               	movf	___flmul@prod,w
  4161  0773  00A8               	movwf	??___flmul
  4162  0774  0835               	movf	___flmul@prod+1,w
  4163  0775  00A9               	movwf	??___flmul+1
  4164  0776  0836               	movf	___flmul@prod+2,w
  4165  0777  00AA               	movwf	??___flmul+2
  4166  0778  0837               	movf	___flmul@prod+3,w
  4167  0779  00AB               	movwf	??___flmul+3
  4168  077A  3001               	movlw	1
  4169  077B  00AC               	movwf	??___flmul+4
  4170  077C                     u2735:	
  4171  077C  0D2B               	rlf	??___flmul+3,w
  4172  077D  0CAB               	rrf	??___flmul+3,f
  4173  077E  0CAA               	rrf	??___flmul+2,f
  4174  077F  0CA9               	rrf	??___flmul+1,f
  4175  0780  0CA8               	rrf	??___flmul,f
  4176  0781                     u2730:	
  4177  0781  0BAC               	decfsz	??___flmul+4,f
  4178  0782  2F7C               	goto	u2735
  4179  0783  082B               	movf	??___flmul+3,w
  4180  0784  00B7               	movwf	___flmul@prod+3
  4181  0785  082A               	movf	??___flmul+2,w
  4182  0786  00B6               	movwf	___flmul@prod+2
  4183  0787  0829               	movf	??___flmul+1,w
  4184  0788  00B5               	movwf	___flmul@prod+1
  4185  0789  0828               	movf	??___flmul,w
  4186  078A  00B4               	movwf	___flmul@prod
  4187  078B                     l2258:	
  4188  078B  3001               	movlw	1
  4189  078C  07B8               	addwf	___flmul@temp,f
  4190  078D  1803               	skipnc
  4191  078E  0AB9               	incf	___flmul@temp+1,f
  4192  078F  3000               	movlw	0
  4193  0790  07B9               	addwf	___flmul@temp+1,f
  4194  0791                     l2260:	
  4195  0791  0839               	movf	___flmul@temp+1,w
  4196  0792  3A80               	xorlw	128
  4197  0793  00FF               	movwf	btemp+1
  4198  0794  3080               	movlw	128
  4199  0795  027F               	subwf	btemp+1,w
  4200  0796  1D03               	skipz
  4201  0797  2F9A               	goto	u2745
  4202  0798  30FF               	movlw	255
  4203  0799  0238               	subwf	___flmul@temp,w
  4204  079A                     u2745:	
  4205  079A  1C03               	skipc
  4206  079B  2F9D               	goto	u2741
  4207  079C  2F9E               	goto	u2740
  4208  079D                     u2741:	
  4209  079D  2FA9               	goto	l2264
  4210  079E                     u2740:	
  4211  079E                     l2262:	
  4212  079E  307F               	movlw	127
  4213  079F  1283               	bcf	3,5	;RP0=0, select bank0
  4214  07A0  1303               	bcf	3,6	;RP1=0, select bank0
  4215  07A1  00B7               	movwf	___flmul@prod+3
  4216  07A2  3080               	movlw	128
  4217  07A3  00B6               	movwf	___flmul@prod+2
  4218  07A4  3000               	movlw	0
  4219  07A5  00B5               	movwf	___flmul@prod+1
  4220  07A6  3000               	movlw	0
  4221  07A7  00B4               	movwf	___flmul@prod
  4222  07A8  2FDE               	goto	l674
  4223  07A9                     l2264:	
  4224  07A9  1283               	bcf	3,5	;RP0=0, select bank0
  4225  07AA  1303               	bcf	3,6	;RP1=0, select bank0
  4226  07AB  0839               	movf	___flmul@temp+1,w
  4227  07AC  3A80               	xorlw	128
  4228  07AD  00FF               	movwf	btemp+1
  4229  07AE  3080               	movlw	128
  4230  07AF  027F               	subwf	btemp+1,w
  4231  07B0  1D03               	skipz
  4232  07B1  2FB4               	goto	u2755
  4233  07B2  3001               	movlw	1
  4234  07B3  0238               	subwf	___flmul@temp,w
  4235  07B4                     u2755:	
  4236  07B4  1803               	skipnc
  4237  07B5  2FB7               	goto	u2751
  4238  07B6  2FB8               	goto	u2750
  4239  07B7                     u2751:	
  4240  07B7  2FC4               	goto	l2270
  4241  07B8                     u2750:	
  4242  07B8                     l2266:	
  4243  07B8  3000               	movlw	0
  4244  07B9  1283               	bcf	3,5	;RP0=0, select bank0
  4245  07BA  1303               	bcf	3,6	;RP1=0, select bank0
  4246  07BB  00B7               	movwf	___flmul@prod+3
  4247  07BC  3000               	movlw	0
  4248  07BD  00B6               	movwf	___flmul@prod+2
  4249  07BE  3000               	movlw	0
  4250  07BF  00B5               	movwf	___flmul@prod+1
  4251  07C0  3000               	movlw	0
  4252  07C1  00B4               	movwf	___flmul@prod
  4253  07C2                     l2268:	
  4254  07C2  01AD               	clrf	___flmul@sign
  4255  07C3  2FDE               	goto	l674
  4256  07C4                     l2270:	
  4257  07C4  1283               	bcf	3,5	;RP0=0, select bank0
  4258  07C5  1303               	bcf	3,6	;RP1=0, select bank0
  4259  07C6  0838               	movf	___flmul@temp,w
  4260  07C7  00A8               	movwf	??___flmul
  4261  07C8  0828               	movf	??___flmul,w
  4262  07C9  00B3               	movwf	___flmul@bexp
  4263  07CA  30FF               	movlw	255
  4264  07CB  05B4               	andwf	___flmul@prod,f
  4265  07CC  30FF               	movlw	255
  4266  07CD  05B5               	andwf	___flmul@prod+1,f
  4267  07CE  307F               	movlw	127
  4268  07CF  05B6               	andwf	___flmul@prod+2,f
  4269  07D0  3000               	movlw	0
  4270  07D1  05B7               	andwf	___flmul@prod+3,f
  4271  07D2                     l2272:	
  4272  07D2  1C33               	btfss	___flmul@bexp,0
  4273  07D3  2FD5               	goto	u2761
  4274  07D4  2FD6               	goto	u2760
  4275  07D5                     u2761:	
  4276  07D5  2FD7               	goto	l2276
  4277  07D6                     u2760:	
  4278  07D6                     l2274:	
  4279  07D6  17B6               	bsf	___flmul@prod+2,7
  4280  07D7                     l2276:	
  4281  07D7  0833               	movf	___flmul@bexp,w
  4282  07D8  00A8               	movwf	??___flmul
  4283  07D9  1003               	clrc
  4284  07DA  0C28               	rrf	??___flmul,w
  4285  07DB  00A9               	movwf	??___flmul+1
  4286  07DC  0829               	movf	??___flmul+1,w
  4287  07DD  00B7               	movwf	___flmul@prod+3
  4288  07DE                     l674:	
  4289  07DE  082D               	movf	___flmul@sign,w
  4290  07DF  00A8               	movwf	??___flmul
  4291  07E0  0828               	movf	??___flmul,w
  4292  07E1  04B7               	iorwf	___flmul@prod+3,f
  4293  07E2                     l2278:	
  4294  07E2  0837               	movf	___flmul@prod+3,w
  4295  07E3  00A3               	movwf	?___flmul+3
  4296  07E4  0836               	movf	___flmul@prod+2,w
  4297  07E5  00A2               	movwf	?___flmul+2
  4298  07E6  0835               	movf	___flmul@prod+1,w
  4299  07E7  00A1               	movwf	?___flmul+1
  4300  07E8  0834               	movf	___flmul@prod,w
  4301  07E9  00A0               	movwf	?___flmul
  4302  07EA                     l662:	
  4303  07EA  0008               	return
  4304  07EB                     __end_of___flmul:	
  4305                           
  4306                           	psect	text16
  4307  0C8D                     __ptext16:	
  4308 ;; *************** function __Umul8_16 *****************
  4309 ;; Defined at:
  4310 ;;		line 4 in file "C:\Program Files (x86)\Microchip\xc8\v2.10\pic\sources\c90\common\Umul8_16.c"
  4311 ;; Parameters:    Size  Location     Type
  4312 ;;  multiplier      1    wreg     unsigned char 
  4313 ;;  multiplicand    1    0[COMMON] unsigned char 
  4314 ;; Auto vars:     Size  Location     Type
  4315 ;;  multiplier      1    8[COMMON] unsigned char 
  4316 ;;  word_mpld       2    6[COMMON] unsigned int 
  4317 ;;  product         2    4[COMMON] unsigned int 
  4318 ;; Return value:  Size  Location     Type
  4319 ;;                  2    0[COMMON] unsigned int 
  4320 ;; Registers used:
  4321 ;;		wreg, status,2, status,0
  4322 ;; Tracked objects:
  4323 ;;		On entry : 0/0
  4324 ;;		On exit  : 0/0
  4325 ;;		Unchanged: 0/0
  4326 ;; Data sizes:     COMMON   BANK0   BANK1   BANK3   BANK2
  4327 ;;      Params:         2       0       0       0       0
  4328 ;;      Locals:         5       0       0       0       0
  4329 ;;      Temps:          2       0       0       0       0
  4330 ;;      Totals:         9       0       0       0       0
  4331 ;;Total ram usage:        9 bytes
  4332 ;; Hardware stack levels used:    1
  4333 ;; This function calls:
  4334 ;;		Nothing
  4335 ;; This function is called by:
  4336 ;;		___flmul
  4337 ;; This function uses a non-reentrant model
  4338 ;;
  4339                           
  4340                           
  4341                           ;psect for function __Umul8_16
  4342  0C8D                     __Umul8_16:	
  4343                           
  4344                           ;incstack = 0
  4345                           ; Regs used in __Umul8_16: [wreg+status,2+status,0]
  4346                           ;__Umul8_16@multiplier stored from wreg
  4347  0C8D  00F8               	movwf	__Umul8_16@multiplier
  4348  0C8E                     l1722:	
  4349  0C8E  01F4               	clrf	__Umul8_16@product
  4350  0C8F  01F5               	clrf	__Umul8_16@product+1
  4351  0C90                     l1724:	
  4352  0C90  0870               	movf	__Umul8_16@multiplicand,w
  4353  0C91  00F2               	movwf	??__Umul8_16
  4354  0C92  01F3               	clrf	??__Umul8_16+1
  4355  0C93  0872               	movf	??__Umul8_16,w
  4356  0C94  00F6               	movwf	__Umul8_16@word_mpld
  4357  0C95  0873               	movf	??__Umul8_16+1,w
  4358  0C96  00F7               	movwf	__Umul8_16@word_mpld+1
  4359  0C97                     l1726:	
  4360  0C97  1C78               	btfss	__Umul8_16@multiplier,0
  4361  0C98  2C9A               	goto	u1691
  4362  0C99  2C9B               	goto	u1690
  4363  0C9A                     u1691:	
  4364  0C9A  2CA1               	goto	l748
  4365  0C9B                     u1690:	
  4366  0C9B                     l1728:	
  4367  0C9B  0876               	movf	__Umul8_16@word_mpld,w
  4368  0C9C  07F4               	addwf	__Umul8_16@product,f
  4369  0C9D  1803               	skipnc
  4370  0C9E  0AF5               	incf	__Umul8_16@product+1,f
  4371  0C9F  0877               	movf	__Umul8_16@word_mpld+1,w
  4372  0CA0  07F5               	addwf	__Umul8_16@product+1,f
  4373  0CA1                     l748:	
  4374  0CA1  3001               	movlw	1
  4375  0CA2                     u1705:	
  4376  0CA2  1003               	clrc
  4377  0CA3  0DF6               	rlf	__Umul8_16@word_mpld,f
  4378  0CA4  0DF7               	rlf	__Umul8_16@word_mpld+1,f
  4379  0CA5  3EFF               	addlw	-1
  4380  0CA6  1D03               	skipz
  4381  0CA7  2CA2               	goto	u1705
  4382  0CA8  1003               	clrc
  4383  0CA9  0CF8               	rrf	__Umul8_16@multiplier,f
  4384  0CAA                     l1730:	
  4385  0CAA  0878               	movf	__Umul8_16@multiplier,w
  4386  0CAB  1D03               	btfss	3,2
  4387  0CAC  2CAE               	goto	u1711
  4388  0CAD  2CAF               	goto	u1710
  4389  0CAE                     u1711:	
  4390  0CAE  2C97               	goto	l1726
  4391  0CAF                     u1710:	
  4392  0CAF                     l1732:	
  4393  0CAF  0875               	movf	__Umul8_16@product+1,w
  4394  0CB0  00F1               	movwf	?__Umul8_16+1
  4395  0CB1  0874               	movf	__Umul8_16@product,w
  4396  0CB2  00F0               	movwf	?__Umul8_16
  4397  0CB3                     l750:	
  4398  0CB3  0008               	return
  4399  0CB4                     __end_of__Umul8_16:	
  4400                           
  4401                           	psect	text17
  4402  02AD                     __ptext17:	
  4403 ;; *************** function ___fldiv *****************
  4404 ;; Defined at:
  4405 ;;		line 8 in file "C:\Program Files (x86)\Microchip\xc8\v2.10\pic\sources\c90\common\sprcdiv.c"
  4406 ;; Parameters:    Size  Location     Type
  4407 ;;  a               4   26[BANK0 ] unsigned int 
  4408 ;;  b               4   30[BANK0 ] unsigned int 
  4409 ;; Auto vars:     Size  Location     Type
  4410 ;;  grs             4   46[BANK0 ] unsigned long 
  4411 ;;  rem             4   39[BANK0 ] unsigned long 
  4412 ;;  new_exp         2   44[BANK0 ] int 
  4413 ;;  aexp            1   51[BANK0 ] unsigned char 
  4414 ;;  bexp            1   50[BANK0 ] unsigned char 
  4415 ;;  sign            1   43[BANK0 ] unsigned char 
  4416 ;; Return value:  Size  Location     Type
  4417 ;;                  4   26[BANK0 ] unsigned char 
  4418 ;; Registers used:
  4419 ;;		wreg, status,2, status,0, btemp+1
  4420 ;; Tracked objects:
  4421 ;;		On entry : 0/0
  4422 ;;		On exit  : 0/0
  4423 ;;		Unchanged: 0/0
  4424 ;; Data sizes:     COMMON   BANK0   BANK1   BANK3   BANK2
  4425 ;;      Params:         0       8       0       0       0
  4426 ;;      Locals:         0      13       0       0       0
  4427 ;;      Temps:          0       5       0       0       0
  4428 ;;      Totals:         0      26       0       0       0
  4429 ;;Total ram usage:       26 bytes
  4430 ;; Hardware stack levels used:    1
  4431 ;; This function calls:
  4432 ;;		Nothing
  4433 ;; This function is called by:
  4434 ;;		_main
  4435 ;; This function uses a non-reentrant model
  4436 ;;
  4437                           
  4438                           
  4439                           ;psect for function ___fldiv
  4440  02AD                     ___fldiv:	
  4441  02AD                     l2000:	
  4442                           ;incstack = 0
  4443                           ; Regs used in ___fldiv: [wreg+status,2+status,0+btemp+1]
  4444                           
  4445  02AD  1283               	bcf	3,5	;RP0=0, select bank0
  4446  02AE  1303               	bcf	3,6	;RP1=0, select bank0
  4447  02AF  0841               	movf	___fldiv@b+3,w
  4448  02B0  3980               	andlw	128
  4449  02B1  00C2               	movwf	??___fldiv
  4450  02B2  0842               	movf	??___fldiv,w
  4451  02B3  00CB               	movwf	___fldiv@sign
  4452  02B4                     l2002:	
  4453  02B4  0841               	movf	___fldiv@b+3,w
  4454  02B5  00C2               	movwf	??___fldiv
  4455  02B6  0742               	addwf	??___fldiv,w
  4456  02B7  00C3               	movwf	??___fldiv+1
  4457  02B8  0843               	movf	??___fldiv+1,w
  4458  02B9  00D2               	movwf	___fldiv@bexp
  4459  02BA                     l2004:	
  4460  02BA  1FC0               	btfss	___fldiv@b+2,7
  4461  02BB  2ABD               	goto	u2111
  4462  02BC  2ABE               	goto	u2110
  4463  02BD                     u2111:	
  4464  02BD  2ABF               	goto	l2008
  4465  02BE                     u2110:	
  4466  02BE                     l2006:	
  4467  02BE  1452               	bsf	___fldiv@bexp,0
  4468  02BF                     l2008:	
  4469  02BF  0852               	movf	___fldiv@bexp,w
  4470  02C0  1903               	btfsc	3,2
  4471  02C1  2AC3               	goto	u2121
  4472  02C2  2AC4               	goto	u2120
  4473  02C3                     u2121:	
  4474  02C3  2AD4               	goto	l2018
  4475  02C4                     u2120:	
  4476  02C4                     l2010:	
  4477  02C4  0A52               	incf	___fldiv@bexp,w
  4478  02C5  1D03               	btfss	3,2
  4479  02C6  2AC8               	goto	u2131
  4480  02C7  2AC9               	goto	u2130
  4481  02C8                     u2131:	
  4482  02C8  2AD1               	goto	l2014
  4483  02C9                     u2130:	
  4484  02C9                     l2012:	
  4485  02C9  3000               	movlw	0
  4486  02CA  00C1               	movwf	___fldiv@b+3
  4487  02CB  3000               	movlw	0
  4488  02CC  00C0               	movwf	___fldiv@b+2
  4489  02CD  3000               	movlw	0
  4490  02CE  00BF               	movwf	___fldiv@b+1
  4491  02CF  3000               	movlw	0
  4492  02D0  00BE               	movwf	___fldiv@b
  4493  02D1                     l2014:	
  4494  02D1  17C0               	bsf	___fldiv@b+2,7
  4495  02D2                     l2016:	
  4496  02D2  01C1               	clrf	___fldiv@b+3
  4497  02D3  2ADC               	goto	l2020
  4498  02D4                     l2018:	
  4499  02D4  3000               	movlw	0
  4500  02D5  00C1               	movwf	___fldiv@b+3
  4501  02D6  3000               	movlw	0
  4502  02D7  00C0               	movwf	___fldiv@b+2
  4503  02D8  3000               	movlw	0
  4504  02D9  00BF               	movwf	___fldiv@b+1
  4505  02DA  3000               	movlw	0
  4506  02DB  00BE               	movwf	___fldiv@b
  4507  02DC                     l2020:	
  4508  02DC  083D               	movf	___fldiv@a+3,w
  4509  02DD  3980               	andlw	128
  4510  02DE  00C2               	movwf	??___fldiv
  4511  02DF  0842               	movf	??___fldiv,w
  4512  02E0  06CB               	xorwf	___fldiv@sign,f
  4513  02E1                     l2022:	
  4514  02E1  083D               	movf	___fldiv@a+3,w
  4515  02E2  00C2               	movwf	??___fldiv
  4516  02E3  0742               	addwf	??___fldiv,w
  4517  02E4  00C3               	movwf	??___fldiv+1
  4518  02E5  0843               	movf	??___fldiv+1,w
  4519  02E6  00D3               	movwf	___fldiv@aexp
  4520  02E7                     l2024:	
  4521  02E7  1FBC               	btfss	___fldiv@a+2,7
  4522  02E8  2AEA               	goto	u2141
  4523  02E9  2AEB               	goto	u2140
  4524  02EA                     u2141:	
  4525  02EA  2AEC               	goto	l2028
  4526  02EB                     u2140:	
  4527  02EB                     l2026:	
  4528  02EB  1453               	bsf	___fldiv@aexp,0
  4529  02EC                     l2028:	
  4530  02EC  0853               	movf	___fldiv@aexp,w
  4531  02ED  1903               	btfsc	3,2
  4532  02EE  2AF0               	goto	u2151
  4533  02EF  2AF1               	goto	u2150
  4534  02F0                     u2151:	
  4535  02F0  2B01               	goto	l2038
  4536  02F1                     u2150:	
  4537  02F1                     l2030:	
  4538  02F1  0A53               	incf	___fldiv@aexp,w
  4539  02F2  1D03               	btfss	3,2
  4540  02F3  2AF5               	goto	u2161
  4541  02F4  2AF6               	goto	u2160
  4542  02F5                     u2161:	
  4543  02F5  2AFE               	goto	l2034
  4544  02F6                     u2160:	
  4545  02F6                     l2032:	
  4546  02F6  3000               	movlw	0
  4547  02F7  00BD               	movwf	___fldiv@a+3
  4548  02F8  3000               	movlw	0
  4549  02F9  00BC               	movwf	___fldiv@a+2
  4550  02FA  3000               	movlw	0
  4551  02FB  00BB               	movwf	___fldiv@a+1
  4552  02FC  3000               	movlw	0
  4553  02FD  00BA               	movwf	___fldiv@a
  4554  02FE                     l2034:	
  4555  02FE  17BC               	bsf	___fldiv@a+2,7
  4556  02FF                     l2036:	
  4557  02FF  01BD               	clrf	___fldiv@a+3
  4558  0300  2B09               	goto	l622
  4559  0301                     l2038:	
  4560  0301  3000               	movlw	0
  4561  0302  00BD               	movwf	___fldiv@a+3
  4562  0303  3000               	movlw	0
  4563  0304  00BC               	movwf	___fldiv@a+2
  4564  0305  3000               	movlw	0
  4565  0306  00BB               	movwf	___fldiv@a+1
  4566  0307  3000               	movlw	0
  4567  0308  00BA               	movwf	___fldiv@a
  4568  0309                     l622:	
  4569  0309  083D               	movf	___fldiv@a+3,w
  4570  030A  043C               	iorwf	___fldiv@a+2,w
  4571  030B  043B               	iorwf	___fldiv@a+1,w
  4572  030C  043A               	iorwf	___fldiv@a,w
  4573  030D  1D03               	skipz
  4574  030E  2B10               	goto	u2171
  4575  030F  2B11               	goto	u2170
  4576  0310                     u2171:	
  4577  0310  2B2A               	goto	l2048
  4578  0311                     u2170:	
  4579  0311                     l2040:	
  4580  0311  3000               	movlw	0
  4581  0312  00C1               	movwf	___fldiv@b+3
  4582  0313  3000               	movlw	0
  4583  0314  00C0               	movwf	___fldiv@b+2
  4584  0315  3000               	movlw	0
  4585  0316  00BF               	movwf	___fldiv@b+1
  4586  0317  3000               	movlw	0
  4587  0318  00BE               	movwf	___fldiv@b
  4588  0319  3080               	movlw	128
  4589  031A  04C0               	iorwf	___fldiv@b+2,f
  4590  031B  307F               	movlw	127
  4591  031C  04C1               	iorwf	___fldiv@b+3,f
  4592  031D                     l2042:	
  4593  031D  084B               	movf	___fldiv@sign,w
  4594  031E  00C2               	movwf	??___fldiv
  4595  031F  0842               	movf	??___fldiv,w
  4596  0320  04C1               	iorwf	___fldiv@b+3,f
  4597  0321                     l2044:	
  4598  0321  0841               	movf	___fldiv@b+3,w
  4599  0322  00BD               	movwf	?___fldiv+3
  4600  0323  0840               	movf	___fldiv@b+2,w
  4601  0324  00BC               	movwf	?___fldiv+2
  4602  0325  083F               	movf	___fldiv@b+1,w
  4603  0326  00BB               	movwf	?___fldiv+1
  4604  0327  083E               	movf	___fldiv@b,w
  4605  0328  00BA               	movwf	?___fldiv
  4606  0329  2C89               	goto	l624
  4607  032A                     l2048:	
  4608  032A  0852               	movf	___fldiv@bexp,w
  4609  032B  1D03               	btfss	3,2
  4610  032C  2B2E               	goto	u2181
  4611  032D  2B2F               	goto	u2180
  4612  032E                     u2181:	
  4613  032E  2B38               	goto	l2054
  4614  032F                     u2180:	
  4615  032F                     l2050:	
  4616  032F  3000               	movlw	0
  4617  0330  00BD               	movwf	?___fldiv+3
  4618  0331  3000               	movlw	0
  4619  0332  00BC               	movwf	?___fldiv+2
  4620  0333  3000               	movlw	0
  4621  0334  00BB               	movwf	?___fldiv+1
  4622  0335  3000               	movlw	0
  4623  0336  00BA               	movwf	?___fldiv
  4624  0337  2C89               	goto	l624
  4625  0338                     l2054:	
  4626  0338  0852               	movf	___fldiv@bexp,w
  4627  0339  00C2               	movwf	??___fldiv
  4628  033A  01C3               	clrf	??___fldiv+1
  4629  033B  0843               	movf	??___fldiv+1,w
  4630  033C  00C5               	movwf	??___fldiv+3
  4631  033D  0853               	movf	___fldiv@aexp,w
  4632  033E  0242               	subwf	??___fldiv,w
  4633  033F  00C4               	movwf	??___fldiv+2
  4634  0340  1C03               	skipc
  4635  0341  03C5               	decf	??___fldiv+3,f
  4636  0342  0844               	movf	??___fldiv+2,w
  4637  0343  3E7F               	addlw	127
  4638  0344  00CC               	movwf	___fldiv@new_exp
  4639  0345  0845               	movf	??___fldiv+3,w
  4640  0346  1803               	skipnc
  4641  0347  3E01               	addlw	1
  4642  0348  3E00               	addlw	0
  4643  0349  00CD               	movwf	___fldiv@new_exp+1
  4644  034A                     l2056:	
  4645  034A  0841               	movf	___fldiv@b+3,w
  4646  034B  00CA               	movwf	___fldiv@rem+3
  4647  034C  0840               	movf	___fldiv@b+2,w
  4648  034D  00C9               	movwf	___fldiv@rem+2
  4649  034E  083F               	movf	___fldiv@b+1,w
  4650  034F  00C8               	movwf	___fldiv@rem+1
  4651  0350  083E               	movf	___fldiv@b,w
  4652  0351  00C7               	movwf	___fldiv@rem
  4653  0352                     l2058:	
  4654  0352  3000               	movlw	0
  4655  0353  00C1               	movwf	___fldiv@b+3
  4656  0354  3000               	movlw	0
  4657  0355  00C0               	movwf	___fldiv@b+2
  4658  0356  3000               	movlw	0
  4659  0357  00BF               	movwf	___fldiv@b+1
  4660  0358  3000               	movlw	0
  4661  0359  00BE               	movwf	___fldiv@b
  4662  035A                     l2060:	
  4663  035A  3000               	movlw	0
  4664  035B  00D1               	movwf	___fldiv@grs+3
  4665  035C  3000               	movlw	0
  4666  035D  00D0               	movwf	___fldiv@grs+2
  4667  035E  3000               	movlw	0
  4668  035F  00CF               	movwf	___fldiv@grs+1
  4669  0360  3000               	movlw	0
  4670  0361  00CE               	movwf	___fldiv@grs
  4671  0362                     l2062:	
  4672  0362  01D3               	clrf	___fldiv@aexp
  4673  0363  2BAE               	goto	l2082
  4674  0364                     l2064:	
  4675  0364  0853               	movf	___fldiv@aexp,w
  4676  0365  1903               	btfsc	3,2
  4677  0366  2B68               	goto	u2191
  4678  0367  2B69               	goto	u2190
  4679  0368                     u2191:	
  4680  0368  2B89               	goto	l2074
  4681  0369                     u2190:	
  4682  0369                     l2066:	
  4683  0369  3001               	movlw	1
  4684  036A  00C2               	movwf	??___fldiv
  4685  036B                     u2205:	
  4686  036B  1003               	clrc
  4687  036C  0DC7               	rlf	___fldiv@rem,f
  4688  036D  0DC8               	rlf	___fldiv@rem+1,f
  4689  036E  0DC9               	rlf	___fldiv@rem+2,f
  4690  036F  0DCA               	rlf	___fldiv@rem+3,f
  4691  0370  0BC2               	decfsz	??___fldiv,f
  4692  0371  2B6B               	goto	u2205
  4693  0372  3001               	movlw	1
  4694  0373  00C2               	movwf	??___fldiv
  4695  0374                     u2215:	
  4696  0374  1003               	clrc
  4697  0375  0DBE               	rlf	___fldiv@b,f
  4698  0376  0DBF               	rlf	___fldiv@b+1,f
  4699  0377  0DC0               	rlf	___fldiv@b+2,f
  4700  0378  0DC1               	rlf	___fldiv@b+3,f
  4701  0379  0BC2               	decfsz	??___fldiv,f
  4702  037A  2B74               	goto	u2215
  4703  037B                     l2068:	
  4704  037B  1FD1               	btfss	___fldiv@grs+3,7
  4705  037C  2B7E               	goto	u2221
  4706  037D  2B7F               	goto	u2220
  4707  037E                     u2221:	
  4708  037E  2B80               	goto	l2072
  4709  037F                     u2220:	
  4710  037F                     l2070:	
  4711  037F  143E               	bsf	___fldiv@b,0
  4712  0380                     l2072:	
  4713  0380  3001               	movlw	1
  4714  0381  00C2               	movwf	??___fldiv
  4715  0382                     u2235:	
  4716  0382  1003               	clrc
  4717  0383  0DCE               	rlf	___fldiv@grs,f
  4718  0384  0DCF               	rlf	___fldiv@grs+1,f
  4719  0385  0DD0               	rlf	___fldiv@grs+2,f
  4720  0386  0DD1               	rlf	___fldiv@grs+3,f
  4721  0387  0BC2               	decfsz	??___fldiv,f
  4722  0388  2B82               	goto	u2235
  4723  0389                     l2074:	
  4724  0389  083D               	movf	___fldiv@a+3,w
  4725  038A  024A               	subwf	___fldiv@rem+3,w
  4726  038B  1D03               	skipz
  4727  038C  2B97               	goto	u2245
  4728  038D  083C               	movf	___fldiv@a+2,w
  4729  038E  0249               	subwf	___fldiv@rem+2,w
  4730  038F  1D03               	skipz
  4731  0390  2B97               	goto	u2245
  4732  0391  083B               	movf	___fldiv@a+1,w
  4733  0392  0248               	subwf	___fldiv@rem+1,w
  4734  0393  1D03               	skipz
  4735  0394  2B97               	goto	u2245
  4736  0395  083A               	movf	___fldiv@a,w
  4737  0396  0247               	subwf	___fldiv@rem,w
  4738  0397                     u2245:	
  4739  0397  1C03               	skipc
  4740  0398  2B9A               	goto	u2241
  4741  0399  2B9B               	goto	u2240
  4742  039A                     u2241:	
  4743  039A  2BAA               	goto	l2080
  4744  039B                     u2240:	
  4745  039B                     l2076:	
  4746  039B  1751               	bsf	___fldiv@grs+3,6
  4747  039C                     l2078:	
  4748  039C  083A               	movf	___fldiv@a,w
  4749  039D  02C7               	subwf	___fldiv@rem,f
  4750  039E  083B               	movf	___fldiv@a+1,w
  4751  039F  1C03               	skipc
  4752  03A0  0F3B               	incfsz	___fldiv@a+1,w
  4753  03A1  02C8               	subwf	___fldiv@rem+1,f
  4754  03A2  083C               	movf	___fldiv@a+2,w
  4755  03A3  1C03               	skipc
  4756  03A4  0F3C               	incfsz	___fldiv@a+2,w
  4757  03A5  02C9               	subwf	___fldiv@rem+2,f
  4758  03A6  083D               	movf	___fldiv@a+3,w
  4759  03A7  1C03               	skipc
  4760  03A8  0F3D               	incfsz	___fldiv@a+3,w
  4761  03A9  02CA               	subwf	___fldiv@rem+3,f
  4762  03AA                     l2080:	
  4763  03AA  3001               	movlw	1
  4764  03AB  00C2               	movwf	??___fldiv
  4765  03AC  0842               	movf	??___fldiv,w
  4766  03AD  07D3               	addwf	___fldiv@aexp,f
  4767  03AE                     l2082:	
  4768  03AE  301A               	movlw	26
  4769  03AF  0253               	subwf	___fldiv@aexp,w
  4770  03B0  1C03               	skipc
  4771  03B1  2BB3               	goto	u2251
  4772  03B2  2BB4               	goto	u2250
  4773  03B3                     u2251:	
  4774  03B3  2B64               	goto	l2064
  4775  03B4                     u2250:	
  4776  03B4                     l2084:	
  4777  03B4  084A               	movf	___fldiv@rem+3,w
  4778  03B5  0449               	iorwf	___fldiv@rem+2,w
  4779  03B6  0448               	iorwf	___fldiv@rem+1,w
  4780  03B7  0447               	iorwf	___fldiv@rem,w
  4781  03B8  1903               	skipnz
  4782  03B9  2BBB               	goto	u2261
  4783  03BA  2BBC               	goto	u2260
  4784  03BB                     u2261:	
  4785  03BB  2BDB               	goto	l2098
  4786  03BC                     u2260:	
  4787  03BC                     l2086:	
  4788  03BC  144E               	bsf	___fldiv@grs,0
  4789  03BD  2BDB               	goto	l2098
  4790  03BE                     l2088:	
  4791  03BE  3001               	movlw	1
  4792  03BF  00C2               	movwf	??___fldiv
  4793  03C0                     u2275:	
  4794  03C0  1003               	clrc
  4795  03C1  0DBE               	rlf	___fldiv@b,f
  4796  03C2  0DBF               	rlf	___fldiv@b+1,f
  4797  03C3  0DC0               	rlf	___fldiv@b+2,f
  4798  03C4  0DC1               	rlf	___fldiv@b+3,f
  4799  03C5  0BC2               	decfsz	??___fldiv,f
  4800  03C6  2BC0               	goto	u2275
  4801  03C7                     l2090:	
  4802  03C7  1FD1               	btfss	___fldiv@grs+3,7
  4803  03C8  2BCA               	goto	u2281
  4804  03C9  2BCB               	goto	u2280
  4805  03CA                     u2281:	
  4806  03CA  2BCC               	goto	l2094
  4807  03CB                     u2280:	
  4808  03CB                     l2092:	
  4809  03CB  143E               	bsf	___fldiv@b,0
  4810  03CC                     l2094:	
  4811  03CC  3001               	movlw	1
  4812  03CD  00C2               	movwf	??___fldiv
  4813  03CE                     u2295:	
  4814  03CE  1003               	clrc
  4815  03CF  0DCE               	rlf	___fldiv@grs,f
  4816  03D0  0DCF               	rlf	___fldiv@grs+1,f
  4817  03D1  0DD0               	rlf	___fldiv@grs+2,f
  4818  03D2  0DD1               	rlf	___fldiv@grs+3,f
  4819  03D3  0BC2               	decfsz	??___fldiv,f
  4820  03D4  2BCE               	goto	u2295
  4821  03D5                     l2096:	
  4822  03D5  30FF               	movlw	255
  4823  03D6  07CC               	addwf	___fldiv@new_exp,f
  4824  03D7  1803               	skipnc
  4825  03D8  0ACD               	incf	___fldiv@new_exp+1,f
  4826  03D9  30FF               	movlw	255
  4827  03DA  07CD               	addwf	___fldiv@new_exp+1,f
  4828  03DB                     l2098:	
  4829  03DB  1FC0               	btfss	___fldiv@b+2,7
  4830  03DC  2BDE               	goto	u2301
  4831  03DD  2BDF               	goto	u2300
  4832  03DE                     u2301:	
  4833  03DE  2BBE               	goto	l2088
  4834  03DF                     u2300:	
  4835  03DF                     l2100:	
  4836  03DF  01D3               	clrf	___fldiv@aexp
  4837  03E0                     l2102:	
  4838  03E0  1FD1               	btfss	___fldiv@grs+3,7
  4839  03E1  2BE3               	goto	u2311
  4840  03E2  2BE4               	goto	u2310
  4841  03E3                     u2311:	
  4842  03E3  2C00               	goto	l2110
  4843  03E4                     u2310:	
  4844  03E4                     l2104:	
  4845  03E4  30FF               	movlw	255
  4846  03E5  054E               	andwf	___fldiv@grs,w
  4847  03E6  00C2               	movwf	??___fldiv
  4848  03E7  30FF               	movlw	255
  4849  03E8  054F               	andwf	___fldiv@grs+1,w
  4850  03E9  00C3               	movwf	??___fldiv+1
  4851  03EA  30FF               	movlw	255
  4852  03EB  0550               	andwf	___fldiv@grs+2,w
  4853  03EC  00C4               	movwf	??___fldiv+2
  4854  03ED  307F               	movlw	127
  4855  03EE  0551               	andwf	___fldiv@grs+3,w
  4856  03EF  00C5               	movwf	??___fldiv+3
  4857  03F0  0845               	movf	??___fldiv+3,w
  4858  03F1  0444               	iorwf	??___fldiv+2,w
  4859  03F2  0443               	iorwf	??___fldiv+1,w
  4860  03F3  0442               	iorwf	??___fldiv,w
  4861  03F4  1903               	skipnz
  4862  03F5  2BF7               	goto	u2321
  4863  03F6  2BF8               	goto	u2320
  4864  03F7                     u2321:	
  4865  03F7  2BFB               	goto	l638
  4866  03F8                     u2320:	
  4867  03F8                     l2106:	
  4868  03F8  01D3               	clrf	___fldiv@aexp
  4869  03F9  0AD3               	incf	___fldiv@aexp,f
  4870  03FA  2C00               	goto	l2110
  4871  03FB                     l638:	
  4872  03FB  1C3E               	btfss	___fldiv@b,0
  4873  03FC  2BFE               	goto	u2331
  4874  03FD  2BFF               	goto	u2330
  4875  03FE                     u2331:	
  4876  03FE  2C00               	goto	l2110
  4877  03FF                     u2330:	
  4878  03FF  2BF8               	goto	l2106
  4879  0400                     l2110:	
  4880  0400  0853               	movf	___fldiv@aexp,w
  4881  0401  1903               	btfsc	3,2
  4882  0402  2C04               	goto	u2341
  4883  0403  2C05               	goto	u2340
  4884  0404                     u2341:	
  4885  0404  2C36               	goto	l2120
  4886  0405                     u2340:	
  4887  0405                     l2112:	
  4888  0405  3001               	movlw	1
  4889  0406  07BE               	addwf	___fldiv@b,f
  4890  0407  3000               	movlw	0
  4891  0408  1803               	skipnc
  4892  0409  3001               	movlw	1
  4893  040A  07BF               	addwf	___fldiv@b+1,f
  4894  040B  3000               	movlw	0
  4895  040C  1803               	skipnc
  4896  040D  3001               	movlw	1
  4897  040E  07C0               	addwf	___fldiv@b+2,f
  4898  040F  3000               	movlw	0
  4899  0410  1803               	skipnc
  4900  0411  3001               	movlw	1
  4901  0412  07C1               	addwf	___fldiv@b+3,f
  4902  0413                     l2114:	
  4903  0413  1C41               	btfss	___fldiv@b+3,0
  4904  0414  2C16               	goto	u2351
  4905  0415  2C17               	goto	u2350
  4906  0416                     u2351:	
  4907  0416  2C36               	goto	l2120
  4908  0417                     u2350:	
  4909  0417                     l2116:	
  4910  0417  083E               	movf	___fldiv@b,w
  4911  0418  00C2               	movwf	??___fldiv
  4912  0419  083F               	movf	___fldiv@b+1,w
  4913  041A  00C3               	movwf	??___fldiv+1
  4914  041B  0840               	movf	___fldiv@b+2,w
  4915  041C  00C4               	movwf	??___fldiv+2
  4916  041D  0841               	movf	___fldiv@b+3,w
  4917  041E  00C5               	movwf	??___fldiv+3
  4918  041F  3001               	movlw	1
  4919  0420  00C6               	movwf	??___fldiv+4
  4920  0421                     u2365:	
  4921  0421  0D45               	rlf	??___fldiv+3,w
  4922  0422  0CC5               	rrf	??___fldiv+3,f
  4923  0423  0CC4               	rrf	??___fldiv+2,f
  4924  0424  0CC3               	rrf	??___fldiv+1,f
  4925  0425  0CC2               	rrf	??___fldiv,f
  4926  0426                     u2360:	
  4927  0426  0BC6               	decfsz	??___fldiv+4,f
  4928  0427  2C21               	goto	u2365
  4929  0428  0845               	movf	??___fldiv+3,w
  4930  0429  00C1               	movwf	___fldiv@b+3
  4931  042A  0844               	movf	??___fldiv+2,w
  4932  042B  00C0               	movwf	___fldiv@b+2
  4933  042C  0843               	movf	??___fldiv+1,w
  4934  042D  00BF               	movwf	___fldiv@b+1
  4935  042E  0842               	movf	??___fldiv,w
  4936  042F  00BE               	movwf	___fldiv@b
  4937  0430                     l2118:	
  4938  0430  3001               	movlw	1
  4939  0431  07CC               	addwf	___fldiv@new_exp,f
  4940  0432  1803               	skipnc
  4941  0433  0ACD               	incf	___fldiv@new_exp+1,f
  4942  0434  3000               	movlw	0
  4943  0435  07CD               	addwf	___fldiv@new_exp+1,f
  4944  0436                     l2120:	
  4945  0436  084D               	movf	___fldiv@new_exp+1,w
  4946  0437  3A80               	xorlw	128
  4947  0438  00FF               	movwf	btemp+1
  4948  0439  3080               	movlw	128
  4949  043A  027F               	subwf	btemp+1,w
  4950  043B  1D03               	skipz
  4951  043C  2C3F               	goto	u2375
  4952  043D  30FF               	movlw	255
  4953  043E  024C               	subwf	___fldiv@new_exp,w
  4954  043F                     u2375:	
  4955  043F  1C03               	skipc
  4956  0440  2C42               	goto	u2371
  4957  0441  2C43               	goto	u2370
  4958  0442                     u2371:	
  4959  0442  2C51               	goto	l2124
  4960  0443                     u2370:	
  4961  0443                     l2122:	
  4962  0443  30FF               	movlw	255
  4963  0444  1283               	bcf	3,5	;RP0=0, select bank0
  4964  0445  1303               	bcf	3,6	;RP1=0, select bank0
  4965  0446  00CC               	movwf	___fldiv@new_exp
  4966  0447  3000               	movlw	0
  4967  0448  00CD               	movwf	___fldiv@new_exp+1
  4968  0449  3000               	movlw	0
  4969  044A  00C1               	movwf	___fldiv@b+3
  4970  044B  3000               	movlw	0
  4971  044C  00C0               	movwf	___fldiv@b+2
  4972  044D  3000               	movlw	0
  4973  044E  00BF               	movwf	___fldiv@b+1
  4974  044F  3000               	movlw	0
  4975  0450  00BE               	movwf	___fldiv@b
  4976  0451                     l2124:	
  4977  0451  1283               	bcf	3,5	;RP0=0, select bank0
  4978  0452  1303               	bcf	3,6	;RP1=0, select bank0
  4979  0453  084D               	movf	___fldiv@new_exp+1,w
  4980  0454  3A80               	xorlw	128
  4981  0455  00FF               	movwf	btemp+1
  4982  0456  3080               	movlw	128
  4983  0457  027F               	subwf	btemp+1,w
  4984  0458  1D03               	skipz
  4985  0459  2C5C               	goto	u2385
  4986  045A  3001               	movlw	1
  4987  045B  024C               	subwf	___fldiv@new_exp,w
  4988  045C                     u2385:	
  4989  045C  1803               	skipnc
  4990  045D  2C5F               	goto	u2381
  4991  045E  2C60               	goto	u2380
  4992  045F                     u2381:	
  4993  045F  2C6D               	goto	l644
  4994  0460                     u2380:	
  4995  0460                     l2126:	
  4996  0460  1283               	bcf	3,5	;RP0=0, select bank0
  4997  0461  1303               	bcf	3,6	;RP1=0, select bank0
  4998  0462  01CC               	clrf	___fldiv@new_exp
  4999  0463  01CD               	clrf	___fldiv@new_exp+1
  5000  0464                     l2128:	
  5001  0464  3000               	movlw	0
  5002  0465  00C1               	movwf	___fldiv@b+3
  5003  0466  3000               	movlw	0
  5004  0467  00C0               	movwf	___fldiv@b+2
  5005  0468  3000               	movlw	0
  5006  0469  00BF               	movwf	___fldiv@b+1
  5007  046A  3000               	movlw	0
  5008  046B  00BE               	movwf	___fldiv@b
  5009  046C                     l2130:	
  5010  046C  01CB               	clrf	___fldiv@sign
  5011  046D                     l644:	
  5012  046D  1283               	bcf	3,5	;RP0=0, select bank0
  5013  046E  1303               	bcf	3,6	;RP1=0, select bank0
  5014  046F  084C               	movf	___fldiv@new_exp,w
  5015  0470  00C2               	movwf	??___fldiv
  5016  0471  0842               	movf	??___fldiv,w
  5017  0472  00D2               	movwf	___fldiv@bexp
  5018  0473                     l2132:	
  5019  0473  1C52               	btfss	___fldiv@bexp,0
  5020  0474  2C76               	goto	u2391
  5021  0475  2C77               	goto	u2390
  5022  0476                     u2391:	
  5023  0476  2C79               	goto	l2136
  5024  0477                     u2390:	
  5025  0477                     l2134:	
  5026  0477  17C0               	bsf	___fldiv@b+2,7
  5027  0478  2C7D               	goto	l646
  5028  0479                     l2136:	
  5029  0479  307F               	movlw	127
  5030  047A  00C2               	movwf	??___fldiv
  5031  047B  0842               	movf	??___fldiv,w
  5032  047C  05C0               	andwf	___fldiv@b+2,f
  5033  047D                     l646:	
  5034  047D  0852               	movf	___fldiv@bexp,w
  5035  047E  00C2               	movwf	??___fldiv
  5036  047F  1003               	clrc
  5037  0480  0C42               	rrf	??___fldiv,w
  5038  0481  00C3               	movwf	??___fldiv+1
  5039  0482  0843               	movf	??___fldiv+1,w
  5040  0483  00C1               	movwf	___fldiv@b+3
  5041  0484  084B               	movf	___fldiv@sign,w
  5042  0485  00C2               	movwf	??___fldiv
  5043  0486  0842               	movf	??___fldiv,w
  5044  0487  04C1               	iorwf	___fldiv@b+3,f
  5045  0488  2B21               	goto	l2044
  5046  0489                     l624:	
  5047  0489  0008               	return
  5048  048A                     __end_of___fldiv:	
  5049                           
  5050                           	psect	text18
  5051  0DEA                     __ptext18:	
  5052 ;; *************** function ___awmod *****************
  5053 ;; Defined at:
  5054 ;;		line 5 in file "C:\Program Files (x86)\Microchip\xc8\v2.10\pic\sources\c90\common\awmod.c"
  5055 ;; Parameters:    Size  Location     Type
  5056 ;;  divisor         2    9[COMMON] int 
  5057 ;;  dividend        2   11[COMMON] int 
  5058 ;; Auto vars:     Size  Location     Type
  5059 ;;  sign            1    1[BANK0 ] unsigned char 
  5060 ;;  counter         1    0[BANK0 ] unsigned char 
  5061 ;; Return value:  Size  Location     Type
  5062 ;;                  2    9[COMMON] int 
  5063 ;; Registers used:
  5064 ;;		wreg, status,2, status,0
  5065 ;; Tracked objects:
  5066 ;;		On entry : 0/0
  5067 ;;		On exit  : 0/0
  5068 ;;		Unchanged: 0/0
  5069 ;; Data sizes:     COMMON   BANK0   BANK1   BANK3   BANK2
  5070 ;;      Params:         4       0       0       0       0
  5071 ;;      Locals:         0       2       0       0       0
  5072 ;;      Temps:          1       0       0       0       0
  5073 ;;      Totals:         5       2       0       0       0
  5074 ;;Total ram usage:        7 bytes
  5075 ;; Hardware stack levels used:    1
  5076 ;; This function calls:
  5077 ;;		Nothing
  5078 ;; This function is called by:
  5079 ;;		_main
  5080 ;; This function uses a non-reentrant model
  5081 ;;
  5082                           
  5083                           
  5084                           ;psect for function ___awmod
  5085  0DEA                     ___awmod:	
  5086  0DEA                     l1926:	
  5087                           ;incstack = 0
  5088                           ; Regs used in ___awmod: [wreg+status,2+status,0]
  5089                           
  5090  0DEA  1283               	bcf	3,5	;RP0=0, select bank0
  5091  0DEB  1303               	bcf	3,6	;RP1=0, select bank0
  5092  0DEC  01A1               	clrf	___awmod@sign
  5093  0DED                     l1928:	
  5094  0DED  1FFC               	btfss	___awmod@dividend+1,7
  5095  0DEE  2DF0               	goto	u1921
  5096  0DEF  2DF1               	goto	u1920
  5097  0DF0                     u1921:	
  5098  0DF0  2DF8               	goto	l1934
  5099  0DF1                     u1920:	
  5100  0DF1                     l1930:	
  5101  0DF1  09FB               	comf	___awmod@dividend,f
  5102  0DF2  09FC               	comf	___awmod@dividend+1,f
  5103  0DF3  0AFB               	incf	___awmod@dividend,f
  5104  0DF4  1903               	skipnz
  5105  0DF5  0AFC               	incf	___awmod@dividend+1,f
  5106  0DF6                     l1932:	
  5107  0DF6  01A1               	clrf	___awmod@sign
  5108  0DF7  0AA1               	incf	___awmod@sign,f
  5109  0DF8                     l1934:	
  5110  0DF8  1FFA               	btfss	___awmod@divisor+1,7
  5111  0DF9  2DFB               	goto	u1931
  5112  0DFA  2DFC               	goto	u1930
  5113  0DFB                     u1931:	
  5114  0DFB  2E01               	goto	l1938
  5115  0DFC                     u1930:	
  5116  0DFC                     l1936:	
  5117  0DFC  09F9               	comf	___awmod@divisor,f
  5118  0DFD  09FA               	comf	___awmod@divisor+1,f
  5119  0DFE  0AF9               	incf	___awmod@divisor,f
  5120  0DFF  1903               	skipnz
  5121  0E00  0AFA               	incf	___awmod@divisor+1,f
  5122  0E01                     l1938:	
  5123  0E01  0879               	movf	___awmod@divisor,w
  5124  0E02  047A               	iorwf	___awmod@divisor+1,w
  5125  0E03  1903               	btfsc	3,2
  5126  0E04  2E06               	goto	u1941
  5127  0E05  2E07               	goto	u1940
  5128  0E06                     u1941:	
  5129  0E06  2E36               	goto	l1956
  5130  0E07                     u1940:	
  5131  0E07                     l1940:	
  5132  0E07  01A0               	clrf	___awmod@counter
  5133  0E08  0AA0               	incf	___awmod@counter,f
  5134  0E09  2E15               	goto	l1946
  5135  0E0A                     l1942:	
  5136  0E0A  3001               	movlw	1
  5137  0E0B                     u1955:	
  5138  0E0B  1003               	clrc
  5139  0E0C  0DF9               	rlf	___awmod@divisor,f
  5140  0E0D  0DFA               	rlf	___awmod@divisor+1,f
  5141  0E0E  3EFF               	addlw	-1
  5142  0E0F  1D03               	skipz
  5143  0E10  2E0B               	goto	u1955
  5144  0E11                     l1944:	
  5145  0E11  3001               	movlw	1
  5146  0E12  00FD               	movwf	??___awmod
  5147  0E13  087D               	movf	??___awmod,w
  5148  0E14  07A0               	addwf	___awmod@counter,f
  5149  0E15                     l1946:	
  5150  0E15  1FFA               	btfss	___awmod@divisor+1,7
  5151  0E16  2E18               	goto	u1961
  5152  0E17  2E19               	goto	u1960
  5153  0E18                     u1961:	
  5154  0E18  2E0A               	goto	l1942
  5155  0E19                     u1960:	
  5156  0E19                     l1948:	
  5157  0E19  087A               	movf	___awmod@divisor+1,w
  5158  0E1A  027C               	subwf	___awmod@dividend+1,w
  5159  0E1B  1D03               	skipz
  5160  0E1C  2E1F               	goto	u1975
  5161  0E1D  0879               	movf	___awmod@divisor,w
  5162  0E1E  027B               	subwf	___awmod@dividend,w
  5163  0E1F                     u1975:	
  5164  0E1F  1C03               	skipc
  5165  0E20  2E22               	goto	u1971
  5166  0E21  2E23               	goto	u1970
  5167  0E22                     u1971:	
  5168  0E22  2E29               	goto	l1952
  5169  0E23                     u1970:	
  5170  0E23                     l1950:	
  5171  0E23  0879               	movf	___awmod@divisor,w
  5172  0E24  02FB               	subwf	___awmod@dividend,f
  5173  0E25  087A               	movf	___awmod@divisor+1,w
  5174  0E26  1C03               	skipc
  5175  0E27  03FC               	decf	___awmod@dividend+1,f
  5176  0E28  02FC               	subwf	___awmod@dividend+1,f
  5177  0E29                     l1952:	
  5178  0E29  3001               	movlw	1
  5179  0E2A                     u1985:	
  5180  0E2A  1003               	clrc
  5181  0E2B  0CFA               	rrf	___awmod@divisor+1,f
  5182  0E2C  0CF9               	rrf	___awmod@divisor,f
  5183  0E2D  3EFF               	addlw	-1
  5184  0E2E  1D03               	skipz
  5185  0E2F  2E2A               	goto	u1985
  5186  0E30                     l1954:	
  5187  0E30  3001               	movlw	1
  5188  0E31  02A0               	subwf	___awmod@counter,f
  5189  0E32  1D03               	btfss	3,2
  5190  0E33  2E35               	goto	u1991
  5191  0E34  2E36               	goto	u1990
  5192  0E35                     u1991:	
  5193  0E35  2E19               	goto	l1948
  5194  0E36                     u1990:	
  5195  0E36                     l1956:	
  5196  0E36  0821               	movf	___awmod@sign,w
  5197  0E37  1903               	btfsc	3,2
  5198  0E38  2E3A               	goto	u2001
  5199  0E39  2E3B               	goto	u2000
  5200  0E3A                     u2001:	
  5201  0E3A  2E40               	goto	l1960
  5202  0E3B                     u2000:	
  5203  0E3B                     l1958:	
  5204  0E3B  09FB               	comf	___awmod@dividend,f
  5205  0E3C  09FC               	comf	___awmod@dividend+1,f
  5206  0E3D  0AFB               	incf	___awmod@dividend,f
  5207  0E3E  1903               	skipnz
  5208  0E3F  0AFC               	incf	___awmod@dividend+1,f
  5209  0E40                     l1960:	
  5210  0E40  087C               	movf	___awmod@dividend+1,w
  5211  0E41  00FA               	movwf	?___awmod+1
  5212  0E42  087B               	movf	___awmod@dividend,w
  5213  0E43  00F9               	movwf	?___awmod
  5214  0E44                     l439:	
  5215  0E44  0008               	return
  5216  0E45                     __end_of___awmod:	
  5217                           
  5218                           	psect	text19
  5219  0EAB                     __ptext19:	
  5220 ;; *************** function ___awdiv *****************
  5221 ;; Defined at:
  5222 ;;		line 5 in file "C:\Program Files (x86)\Microchip\xc8\v2.10\pic\sources\c90\common\awdiv.c"
  5223 ;; Parameters:    Size  Location     Type
  5224 ;;  divisor         2    0[COMMON] int 
  5225 ;;  dividend        2    2[COMMON] int 
  5226 ;; Auto vars:     Size  Location     Type
  5227 ;;  quotient        2    7[COMMON] int 
  5228 ;;  sign            1    6[COMMON] unsigned char 
  5229 ;;  counter         1    5[COMMON] unsigned char 
  5230 ;; Return value:  Size  Location     Type
  5231 ;;                  2    0[COMMON] int 
  5232 ;; Registers used:
  5233 ;;		wreg, status,2, status,0
  5234 ;; Tracked objects:
  5235 ;;		On entry : 0/0
  5236 ;;		On exit  : 0/0
  5237 ;;		Unchanged: 0/0
  5238 ;; Data sizes:     COMMON   BANK0   BANK1   BANK3   BANK2
  5239 ;;      Params:         4       0       0       0       0
  5240 ;;      Locals:         4       0       0       0       0
  5241 ;;      Temps:          1       0       0       0       0
  5242 ;;      Totals:         9       0       0       0       0
  5243 ;;Total ram usage:        9 bytes
  5244 ;; Hardware stack levels used:    1
  5245 ;; This function calls:
  5246 ;;		Nothing
  5247 ;; This function is called by:
  5248 ;;		_main
  5249 ;; This function uses a non-reentrant model
  5250 ;;
  5251                           
  5252                           
  5253                           ;psect for function ___awdiv
  5254  0EAB                     ___awdiv:	
  5255  0EAB                     l1882:	
  5256                           ;incstack = 0
  5257                           ; Regs used in ___awdiv: [wreg+status,2+status,0]
  5258                           
  5259  0EAB  01F6               	clrf	___awdiv@sign
  5260  0EAC                     l1884:	
  5261  0EAC  1FF1               	btfss	___awdiv@divisor+1,7
  5262  0EAD  2EAF               	goto	u1821
  5263  0EAE  2EB0               	goto	u1820
  5264  0EAF                     u1821:	
  5265  0EAF  2EB7               	goto	l1890
  5266  0EB0                     u1820:	
  5267  0EB0                     l1886:	
  5268  0EB0  09F0               	comf	___awdiv@divisor,f
  5269  0EB1  09F1               	comf	___awdiv@divisor+1,f
  5270  0EB2  0AF0               	incf	___awdiv@divisor,f
  5271  0EB3  1903               	skipnz
  5272  0EB4  0AF1               	incf	___awdiv@divisor+1,f
  5273  0EB5                     l1888:	
  5274  0EB5  01F6               	clrf	___awdiv@sign
  5275  0EB6  0AF6               	incf	___awdiv@sign,f
  5276  0EB7                     l1890:	
  5277  0EB7  1FF3               	btfss	___awdiv@dividend+1,7
  5278  0EB8  2EBA               	goto	u1831
  5279  0EB9  2EBB               	goto	u1830
  5280  0EBA                     u1831:	
  5281  0EBA  2EC4               	goto	l1896
  5282  0EBB                     u1830:	
  5283  0EBB                     l1892:	
  5284  0EBB  09F2               	comf	___awdiv@dividend,f
  5285  0EBC  09F3               	comf	___awdiv@dividend+1,f
  5286  0EBD  0AF2               	incf	___awdiv@dividend,f
  5287  0EBE  1903               	skipnz
  5288  0EBF  0AF3               	incf	___awdiv@dividend+1,f
  5289  0EC0                     l1894:	
  5290  0EC0  3001               	movlw	1
  5291  0EC1  00F4               	movwf	??___awdiv
  5292  0EC2  0874               	movf	??___awdiv,w
  5293  0EC3  06F6               	xorwf	___awdiv@sign,f
  5294  0EC4                     l1896:	
  5295  0EC4  01F7               	clrf	___awdiv@quotient
  5296  0EC5  01F8               	clrf	___awdiv@quotient+1
  5297  0EC6                     l1898:	
  5298  0EC6  0870               	movf	___awdiv@divisor,w
  5299  0EC7  0471               	iorwf	___awdiv@divisor+1,w
  5300  0EC8  1903               	btfsc	3,2
  5301  0EC9  2ECB               	goto	u1841
  5302  0ECA  2ECC               	goto	u1840
  5303  0ECB                     u1841:	
  5304  0ECB  2F03               	goto	l1918
  5305  0ECC                     u1840:	
  5306  0ECC                     l1900:	
  5307  0ECC  01F5               	clrf	___awdiv@counter
  5308  0ECD  0AF5               	incf	___awdiv@counter,f
  5309  0ECE  2EDA               	goto	l1906
  5310  0ECF                     l1902:	
  5311  0ECF  3001               	movlw	1
  5312  0ED0                     u1855:	
  5313  0ED0  1003               	clrc
  5314  0ED1  0DF0               	rlf	___awdiv@divisor,f
  5315  0ED2  0DF1               	rlf	___awdiv@divisor+1,f
  5316  0ED3  3EFF               	addlw	-1
  5317  0ED4  1D03               	skipz
  5318  0ED5  2ED0               	goto	u1855
  5319  0ED6                     l1904:	
  5320  0ED6  3001               	movlw	1
  5321  0ED7  00F4               	movwf	??___awdiv
  5322  0ED8  0874               	movf	??___awdiv,w
  5323  0ED9  07F5               	addwf	___awdiv@counter,f
  5324  0EDA                     l1906:	
  5325  0EDA  1FF1               	btfss	___awdiv@divisor+1,7
  5326  0EDB  2EDD               	goto	u1861
  5327  0EDC  2EDE               	goto	u1860
  5328  0EDD                     u1861:	
  5329  0EDD  2ECF               	goto	l1902
  5330  0EDE                     u1860:	
  5331  0EDE                     l1908:	
  5332  0EDE  3001               	movlw	1
  5333  0EDF                     u1875:	
  5334  0EDF  1003               	clrc
  5335  0EE0  0DF7               	rlf	___awdiv@quotient,f
  5336  0EE1  0DF8               	rlf	___awdiv@quotient+1,f
  5337  0EE2  3EFF               	addlw	-1
  5338  0EE3  1D03               	skipz
  5339  0EE4  2EDF               	goto	u1875
  5340  0EE5  0871               	movf	___awdiv@divisor+1,w
  5341  0EE6  0273               	subwf	___awdiv@dividend+1,w
  5342  0EE7  1D03               	skipz
  5343  0EE8  2EEB               	goto	u1885
  5344  0EE9  0870               	movf	___awdiv@divisor,w
  5345  0EEA  0272               	subwf	___awdiv@dividend,w
  5346  0EEB                     u1885:	
  5347  0EEB  1C03               	skipc
  5348  0EEC  2EEE               	goto	u1881
  5349  0EED  2EEF               	goto	u1880
  5350  0EEE                     u1881:	
  5351  0EEE  2EF6               	goto	l1914
  5352  0EEF                     u1880:	
  5353  0EEF                     l1910:	
  5354  0EEF  0870               	movf	___awdiv@divisor,w
  5355  0EF0  02F2               	subwf	___awdiv@dividend,f
  5356  0EF1  0871               	movf	___awdiv@divisor+1,w
  5357  0EF2  1C03               	skipc
  5358  0EF3  03F3               	decf	___awdiv@dividend+1,f
  5359  0EF4  02F3               	subwf	___awdiv@dividend+1,f
  5360  0EF5                     l1912:	
  5361  0EF5  1477               	bsf	___awdiv@quotient,0
  5362  0EF6                     l1914:	
  5363  0EF6  3001               	movlw	1
  5364  0EF7                     u1895:	
  5365  0EF7  1003               	clrc
  5366  0EF8  0CF1               	rrf	___awdiv@divisor+1,f
  5367  0EF9  0CF0               	rrf	___awdiv@divisor,f
  5368  0EFA  3EFF               	addlw	-1
  5369  0EFB  1D03               	skipz
  5370  0EFC  2EF7               	goto	u1895
  5371  0EFD                     l1916:	
  5372  0EFD  3001               	movlw	1
  5373  0EFE  02F5               	subwf	___awdiv@counter,f
  5374  0EFF  1D03               	btfss	3,2
  5375  0F00  2F02               	goto	u1901
  5376  0F01  2F03               	goto	u1900
  5377  0F02                     u1901:	
  5378  0F02  2EDE               	goto	l1908
  5379  0F03                     u1900:	
  5380  0F03                     l1918:	
  5381  0F03  0876               	movf	___awdiv@sign,w
  5382  0F04  1903               	btfsc	3,2
  5383  0F05  2F07               	goto	u1911
  5384  0F06  2F08               	goto	u1910
  5385  0F07                     u1911:	
  5386  0F07  2F0D               	goto	l1922
  5387  0F08                     u1910:	
  5388  0F08                     l1920:	
  5389  0F08  09F7               	comf	___awdiv@quotient,f
  5390  0F09  09F8               	comf	___awdiv@quotient+1,f
  5391  0F0A  0AF7               	incf	___awdiv@quotient,f
  5392  0F0B  1903               	skipnz
  5393  0F0C  0AF8               	incf	___awdiv@quotient+1,f
  5394  0F0D                     l1922:	
  5395  0F0D  0878               	movf	___awdiv@quotient+1,w
  5396  0F0E  00F1               	movwf	?___awdiv+1
  5397  0F0F  0877               	movf	___awdiv@quotient,w
  5398  0F10  00F0               	movwf	?___awdiv
  5399  0F11                     l426:	
  5400  0F11  0008               	return
  5401  0F12                     __end_of___awdiv:	
  5402                           
  5403                           	psect	text20
  5404  0BEC                     __ptext20:	
  5405 ;; *************** function _SETUP *****************
  5406 ;; Defined at:
  5407 ;;		line 94 in file "Lab5_MASTER.c"
  5408 ;; Parameters:    Size  Location     Type
  5409 ;;		None
  5410 ;; Auto vars:     Size  Location     Type
  5411 ;;		None
  5412 ;; Return value:  Size  Location     Type
  5413 ;;                  1    wreg      void 
  5414 ;; Registers used:
  5415 ;;		wreg, status,2
  5416 ;; Tracked objects:
  5417 ;;		On entry : 0/0
  5418 ;;		On exit  : 0/0
  5419 ;;		Unchanged: 0/0
  5420 ;; Data sizes:     COMMON   BANK0   BANK1   BANK3   BANK2
  5421 ;;      Params:         0       0       0       0       0
  5422 ;;      Locals:         0       0       0       0       0
  5423 ;;      Temps:          0       0       0       0       0
  5424 ;;      Totals:         0       0       0       0       0
  5425 ;;Total ram usage:        0 bytes
  5426 ;; Hardware stack levels used:    1
  5427 ;; This function calls:
  5428 ;;		Nothing
  5429 ;; This function is called by:
  5430 ;;		_main
  5431 ;; This function uses a non-reentrant model
  5432 ;;
  5433                           
  5434                           
  5435                           ;psect for function _SETUP
  5436  0BEC                     _SETUP:	
  5437  0BEC                     l1806:	
  5438                           ;incstack = 0
  5439                           ; Regs used in _SETUP: [wreg+status,2]
  5440                           
  5441                           
  5442                           ;Lab5_MASTER.c: 95:     TRISA=0;
  5443  0BEC  1683               	bsf	3,5	;RP0=1, select bank1
  5444  0BED  1303               	bcf	3,6	;RP1=0, select bank1
  5445  0BEE  0185               	clrf	5	;volatile
  5446                           
  5447                           ;Lab5_MASTER.c: 96:     TRISB=0;
  5448  0BEF  0186               	clrf	6	;volatile
  5449  0BF0                     l1808:	
  5450                           
  5451                           ;Lab5_MASTER.c: 97:     TRISC=0b000011000;
  5452  0BF0  3018               	movlw	24
  5453  0BF1  0087               	movwf	7	;volatile
  5454  0BF2                     l1810:	
  5455                           
  5456                           ;Lab5_MASTER.c: 98:     TRISD=0;
  5457  0BF2  0188               	clrf	8	;volatile
  5458  0BF3                     l1812:	
  5459                           
  5460                           ;Lab5_MASTER.c: 99:     TRISE=0;
  5461  0BF3  0189               	clrf	9	;volatile
  5462  0BF4                     l1814:	
  5463                           
  5464                           ;Lab5_MASTER.c: 100:     PORTA=0;
  5465  0BF4  1283               	bcf	3,5	;RP0=0, select bank0
  5466  0BF5  1303               	bcf	3,6	;RP1=0, select bank0
  5467  0BF6  0185               	clrf	5	;volatile
  5468  0BF7                     l1816:	
  5469                           
  5470                           ;Lab5_MASTER.c: 101:     PORTB=0;
  5471  0BF7  0186               	clrf	6	;volatile
  5472  0BF8                     l1818:	
  5473                           
  5474                           ;Lab5_MASTER.c: 102:     PORTC=0;
  5475  0BF8  0187               	clrf	7	;volatile
  5476  0BF9                     l1820:	
  5477                           
  5478                           ;Lab5_MASTER.c: 103:     PORTD=0;
  5479  0BF9  0188               	clrf	8	;volatile
  5480  0BFA                     l1822:	
  5481                           
  5482                           ;Lab5_MASTER.c: 104:     PORTE=0;
  5483  0BFA  0189               	clrf	9	;volatile
  5484  0BFB                     l134:	
  5485  0BFB  0008               	return
  5486  0BFC                     __end_of_SETUP:	
  5487                           
  5488                           	psect	text21
  5489  0BC6                     __ptext21:	
  5490 ;; *************** function _I2C_Master_Write *****************
  5491 ;; Defined at:
  5492 ;;		line 41 in file "I2C_MASTER.c"
  5493 ;; Parameters:    Size  Location     Type
  5494 ;;  d               2    0[COMMON] unsigned int 
  5495 ;; Auto vars:     Size  Location     Type
  5496 ;;		None
  5497 ;; Return value:  Size  Location     Type
  5498 ;;                  1    wreg      void 
  5499 ;; Registers used:
  5500 ;;		wreg, status,2, status,0, pclath, cstack
  5501 ;; Tracked objects:
  5502 ;;		On entry : 0/0
  5503 ;;		On exit  : 0/0
  5504 ;;		Unchanged: 0/0
  5505 ;; Data sizes:     COMMON   BANK0   BANK1   BANK3   BANK2
  5506 ;;      Params:         2       0       0       0       0
  5507 ;;      Locals:         0       0       0       0       0
  5508 ;;      Temps:          0       0       0       0       0
  5509 ;;      Totals:         2       0       0       0       0
  5510 ;;Total ram usage:        2 bytes
  5511 ;; Hardware stack levels used:    1
  5512 ;; Hardware stack levels required when called:    1
  5513 ;; This function calls:
  5514 ;;		_I2C_Master_Wait
  5515 ;; This function is called by:
  5516 ;;		_main
  5517 ;; This function uses a non-reentrant model
  5518 ;;
  5519                           
  5520                           
  5521                           ;psect for function _I2C_Master_Write
  5522  0BC6                     _I2C_Master_Write:	
  5523  0BC6                     l1786:	
  5524                           ;incstack = 0
  5525                           ; Regs used in _I2C_Master_Write: [wreg+status,2+status,0+pclath+cstack]
  5526                           
  5527                           
  5528                           ;I2C_MASTER.c: 42:     I2C_Master_Wait();
  5529  0BC6  120A  158A  23D0  120A  158A  	fcall	_I2C_Master_Wait
  5530  0BCB                     l1788:	
  5531                           
  5532                           ;I2C_MASTER.c: 43:     SSPBUF = d;
  5533  0BCB  0870               	movf	I2C_Master_Write@d,w
  5534  0BCC  1283               	bcf	3,5	;RP0=0, select bank0
  5535  0BCD  1303               	bcf	3,6	;RP1=0, select bank0
  5536  0BCE  0093               	movwf	19	;volatile
  5537  0BCF                     l49:	
  5538  0BCF  0008               	return
  5539  0BD0                     __end_of_I2C_Master_Write:	
  5540                           
  5541                           	psect	text22
  5542  0BBD                     __ptext22:	
  5543 ;; *************** function _I2C_Master_Stop *****************
  5544 ;; Defined at:
  5545 ;;		line 32 in file "I2C_MASTER.c"
  5546 ;; Parameters:    Size  Location     Type
  5547 ;;		None
  5548 ;; Auto vars:     Size  Location     Type
  5549 ;;		None
  5550 ;; Return value:  Size  Location     Type
  5551 ;;                  1    wreg      void 
  5552 ;; Registers used:
  5553 ;;		wreg, status,2, status,0, pclath, cstack
  5554 ;; Tracked objects:
  5555 ;;		On entry : 0/0
  5556 ;;		On exit  : 0/0
  5557 ;;		Unchanged: 0/0
  5558 ;; Data sizes:     COMMON   BANK0   BANK1   BANK3   BANK2
  5559 ;;      Params:         0       0       0       0       0
  5560 ;;      Locals:         0       0       0       0       0
  5561 ;;      Temps:          0       0       0       0       0
  5562 ;;      Totals:         0       0       0       0       0
  5563 ;;Total ram usage:        0 bytes
  5564 ;; Hardware stack levels used:    1
  5565 ;; Hardware stack levels required when called:    1
  5566 ;; This function calls:
  5567 ;;		_I2C_Master_Wait
  5568 ;; This function is called by:
  5569 ;;		_main
  5570 ;; This function uses a non-reentrant model
  5571 ;;
  5572                           
  5573                           
  5574                           ;psect for function _I2C_Master_Stop
  5575  0BBD                     _I2C_Master_Stop:	
  5576  0BBD                     l1782:	
  5577                           ;incstack = 0
  5578                           ; Regs used in _I2C_Master_Stop: [wreg+status,2+status,0+pclath+cstack]
  5579                           
  5580                           
  5581                           ;I2C_MASTER.c: 33:     I2C_Master_Wait();
  5582  0BBD  120A  158A  23D0  120A  158A  	fcall	_I2C_Master_Wait
  5583  0BC2                     l1784:	
  5584                           
  5585                           ;I2C_MASTER.c: 34:     SSPCON2bits.PEN = 1;
  5586  0BC2  1683               	bsf	3,5	;RP0=1, select bank1
  5587  0BC3  1303               	bcf	3,6	;RP1=0, select bank1
  5588  0BC4  1511               	bsf	17,2	;volatile
  5589  0BC5                     l46:	
  5590  0BC5  0008               	return
  5591  0BC6                     __end_of_I2C_Master_Stop:	
  5592                           
  5593                           	psect	text23
  5594  0BB4                     __ptext23:	
  5595 ;; *************** function _I2C_Master_Start *****************
  5596 ;; Defined at:
  5597 ;;		line 18 in file "I2C_MASTER.c"
  5598 ;; Parameters:    Size  Location     Type
  5599 ;;		None
  5600 ;; Auto vars:     Size  Location     Type
  5601 ;;		None
  5602 ;; Return value:  Size  Location     Type
  5603 ;;                  1    wreg      void 
  5604 ;; Registers used:
  5605 ;;		wreg, status,2, status,0, pclath, cstack
  5606 ;; Tracked objects:
  5607 ;;		On entry : 0/0
  5608 ;;		On exit  : 0/0
  5609 ;;		Unchanged: 0/0
  5610 ;; Data sizes:     COMMON   BANK0   BANK1   BANK3   BANK2
  5611 ;;      Params:         0       0       0       0       0
  5612 ;;      Locals:         0       0       0       0       0
  5613 ;;      Temps:          0       0       0       0       0
  5614 ;;      Totals:         0       0       0       0       0
  5615 ;;Total ram usage:        0 bytes
  5616 ;; Hardware stack levels used:    1
  5617 ;; Hardware stack levels required when called:    1
  5618 ;; This function calls:
  5619 ;;		_I2C_Master_Wait
  5620 ;; This function is called by:
  5621 ;;		_main
  5622 ;; This function uses a non-reentrant model
  5623 ;;
  5624                           
  5625                           
  5626                           ;psect for function _I2C_Master_Start
  5627  0BB4                     _I2C_Master_Start:	
  5628  0BB4                     l1778:	
  5629                           ;incstack = 0
  5630                           ; Regs used in _I2C_Master_Start: [wreg+status,2+status,0+pclath+cstack]
  5631                           
  5632                           
  5633                           ;I2C_MASTER.c: 19:     I2C_Master_Wait();
  5634  0BB4  120A  158A  23D0  120A  158A  	fcall	_I2C_Master_Wait
  5635  0BB9                     l1780:	
  5636                           
  5637                           ;I2C_MASTER.c: 20:     SSPCON2bits.SEN = 1;
  5638  0BB9  1683               	bsf	3,5	;RP0=1, select bank1
  5639  0BBA  1303               	bcf	3,6	;RP1=0, select bank1
  5640  0BBB  1411               	bsf	17,0	;volatile
  5641  0BBC                     l40:	
  5642  0BBC  0008               	return
  5643  0BBD                     __end_of_I2C_Master_Start:	
  5644                           
  5645                           	psect	text24
  5646  0D06                     __ptext24:	
  5647 ;; *************** function _I2C_Master_Read *****************
  5648 ;; Defined at:
  5649 ;;		line 49 in file "I2C_MASTER.c"
  5650 ;; Parameters:    Size  Location     Type
  5651 ;;  a               2    0[COMMON] unsigned short 
  5652 ;; Auto vars:     Size  Location     Type
  5653 ;;  temp            2    4[COMMON] unsigned short 
  5654 ;; Return value:  Size  Location     Type
  5655 ;;                  2    0[COMMON] unsigned short 
  5656 ;; Registers used:
  5657 ;;		wreg, status,2, status,0, pclath, cstack
  5658 ;; Tracked objects:
  5659 ;;		On entry : 0/0
  5660 ;;		On exit  : 0/0
  5661 ;;		Unchanged: 0/0
  5662 ;; Data sizes:     COMMON   BANK0   BANK1   BANK3   BANK2
  5663 ;;      Params:         2       0       0       0       0
  5664 ;;      Locals:         2       0       0       0       0
  5665 ;;      Temps:          2       0       0       0       0
  5666 ;;      Totals:         6       0       0       0       0
  5667 ;;Total ram usage:        6 bytes
  5668 ;; Hardware stack levels used:    1
  5669 ;; Hardware stack levels required when called:    1
  5670 ;; This function calls:
  5671 ;;		_I2C_Master_Wait
  5672 ;; This function is called by:
  5673 ;;		_main
  5674 ;; This function uses a non-reentrant model
  5675 ;;
  5676                           
  5677                           
  5678                           ;psect for function _I2C_Master_Read
  5679  0D06                     _I2C_Master_Read:	
  5680  0D06                     l1790:	
  5681                           ;incstack = 0
  5682                           ; Regs used in _I2C_Master_Read: [wreg+status,2+status,0+pclath+cstack]
  5683                           
  5684                           
  5685                           ;I2C_MASTER.c: 50:     unsigned short temp;;I2C_MASTER.c: 51:     I2C_Master_Wait();
  5686  0D06  120A  158A  23D0  120A  158A  	fcall	_I2C_Master_Wait
  5687  0D0B                     l1792:	
  5688                           
  5689                           ;I2C_MASTER.c: 52:     RCEN = 1;
  5690  0D0B  1683               	bsf	3,5	;RP0=1, select bank1
  5691  0D0C  1303               	bcf	3,6	;RP1=0, select bank1
  5692  0D0D  1591               	bsf	17,3	;volatile
  5693                           
  5694                           ;I2C_MASTER.c: 53:     I2C_Master_Wait();
  5695  0D0E  120A  158A  23D0  120A  158A  	fcall	_I2C_Master_Wait
  5696  0D13                     l1794:	
  5697                           
  5698                           ;I2C_MASTER.c: 54:     temp = SSPBUF;
  5699  0D13  1283               	bcf	3,5	;RP0=0, select bank0
  5700  0D14  1303               	bcf	3,6	;RP1=0, select bank0
  5701  0D15  0813               	movf	19,w	;volatile
  5702  0D16  00F2               	movwf	??_I2C_Master_Read
  5703  0D17  01F3               	clrf	??_I2C_Master_Read+1
  5704  0D18  0872               	movf	??_I2C_Master_Read,w
  5705  0D19  00F4               	movwf	I2C_Master_Read@temp
  5706  0D1A  0873               	movf	??_I2C_Master_Read+1,w
  5707  0D1B  00F5               	movwf	I2C_Master_Read@temp+1
  5708  0D1C                     l1796:	
  5709                           
  5710                           ;I2C_MASTER.c: 55:     I2C_Master_Wait();
  5711  0D1C  120A  158A  23D0  120A  158A  	fcall	_I2C_Master_Wait
  5712  0D21                     l1798:	
  5713                           
  5714                           ;I2C_MASTER.c: 56:     if(a == 1){
  5715  0D21  0370               	decf	I2C_Master_Read@a,w
  5716  0D22  0471               	iorwf	I2C_Master_Read@a+1,w
  5717  0D23  1D03               	btfss	3,2
  5718  0D24  2D26               	goto	u1761
  5719  0D25  2D27               	goto	u1760
  5720  0D26                     u1761:	
  5721  0D26  2D2B               	goto	l52
  5722  0D27                     u1760:	
  5723  0D27                     l1800:	
  5724                           
  5725                           ;I2C_MASTER.c: 57:         SSPCON2bits.ACKDT = 0;
  5726  0D27  1683               	bsf	3,5	;RP0=1, select bank1
  5727  0D28  1303               	bcf	3,6	;RP1=0, select bank1
  5728  0D29  1291               	bcf	17,5	;volatile
  5729                           
  5730                           ;I2C_MASTER.c: 58:     }
  5731  0D2A  2D2E               	goto	l53
  5732  0D2B                     l52:	
  5733                           ;I2C_MASTER.c: 59:     else{
  5734                           
  5735                           
  5736                           ;I2C_MASTER.c: 60:         SSPCON2bits.ACKDT = 1;
  5737  0D2B  1683               	bsf	3,5	;RP0=1, select bank1
  5738  0D2C  1303               	bcf	3,6	;RP1=0, select bank1
  5739  0D2D  1691               	bsf	17,5	;volatile
  5740  0D2E                     l53:	
  5741                           ;I2C_MASTER.c: 61:     }
  5742                           
  5743                           
  5744                           ;I2C_MASTER.c: 62:     SSPCON2bits.ACKEN = 1;
  5745  0D2E  1611               	bsf	17,4	;volatile
  5746  0D2F                     l1802:	
  5747                           
  5748                           ;I2C_MASTER.c: 63:     return temp;
  5749  0D2F  0875               	movf	I2C_Master_Read@temp+1,w
  5750  0D30  00F1               	movwf	?_I2C_Master_Read+1
  5751  0D31  0874               	movf	I2C_Master_Read@temp,w
  5752  0D32  00F0               	movwf	?_I2C_Master_Read
  5753  0D33                     l54:	
  5754  0D33  0008               	return
  5755  0D34                     __end_of_I2C_Master_Read:	
  5756                           
  5757                           	psect	text25
  5758  0BD0                     __ptext25:	
  5759 ;; *************** function _I2C_Master_Wait *****************
  5760 ;; Defined at:
  5761 ;;		line 12 in file "I2C_MASTER.c"
  5762 ;; Parameters:    Size  Location     Type
  5763 ;;		None
  5764 ;; Auto vars:     Size  Location     Type
  5765 ;;		None
  5766 ;; Return value:  Size  Location     Type
  5767 ;;                  1    wreg      void 
  5768 ;; Registers used:
  5769 ;;		wreg, status,2
  5770 ;; Tracked objects:
  5771 ;;		On entry : 0/0
  5772 ;;		On exit  : 0/0
  5773 ;;		Unchanged: 0/0
  5774 ;; Data sizes:     COMMON   BANK0   BANK1   BANK3   BANK2
  5775 ;;      Params:         0       0       0       0       0
  5776 ;;      Locals:         0       0       0       0       0
  5777 ;;      Temps:          0       0       0       0       0
  5778 ;;      Totals:         0       0       0       0       0
  5779 ;;Total ram usage:        0 bytes
  5780 ;; Hardware stack levels used:    1
  5781 ;; This function calls:
  5782 ;;		Nothing
  5783 ;; This function is called by:
  5784 ;;		_I2C_Master_Start
  5785 ;;		_I2C_Master_Stop
  5786 ;;		_I2C_Master_Write
  5787 ;;		_I2C_Master_Read
  5788 ;;		_I2C_Master_RepeatedStart
  5789 ;; This function uses a non-reentrant model
  5790 ;;
  5791                           
  5792                           
  5793                           ;psect for function _I2C_Master_Wait
  5794  0BD0                     _I2C_Master_Wait:	
  5795  0BD0                     l1684:	
  5796                           ;incstack = 0
  5797                           ; Regs used in _I2C_Master_Wait: [wreg+status,2]
  5798                           
  5799  0BD0                     l34:	
  5800                           ;I2C_MASTER.c: 13:     while ((SSPSTAT & 0x04) || (SSPCON2 & 0x1F));
  5801                           
  5802  0BD0  1683               	bsf	3,5	;RP0=1, select bank1
  5803  0BD1  1303               	bcf	3,6	;RP1=0, select bank1
  5804  0BD2  1914               	btfsc	20,2	;volatile
  5805  0BD3  2BD5               	goto	u1601
  5806  0BD4  2BD6               	goto	u1600
  5807  0BD5                     u1601:	
  5808  0BD5  2BD0               	goto	l34
  5809  0BD6                     u1600:	
  5810  0BD6                     l1686:	
  5811  0BD6  0811               	movf	17,w	;volatile
  5812  0BD7  391F               	andlw	31
  5813  0BD8  1D03               	btfss	3,2
  5814  0BD9  2BDB               	goto	u1611
  5815  0BDA  2BDC               	goto	u1610
  5816  0BDB                     u1611:	
  5817  0BDB  2BD0               	goto	l34
  5818  0BDC                     u1610:	
  5819  0BDC                     l37:	
  5820  0BDC  0008               	return
  5821  0BDD                     __end_of_I2C_Master_Wait:	
  5822                           
  5823                           	psect	text26
  5824  0D34                     __ptext26:	
  5825 ;; *************** function _I2C_INIT *****************
  5826 ;; Defined at:
  5827 ;;		line 3 in file "I2C_MASTER.c"
  5828 ;; Parameters:    Size  Location     Type
  5829 ;;  c               4    0[BANK0 ] const unsigned long 
  5830 ;; Auto vars:     Size  Location     Type
  5831 ;;		None
  5832 ;; Return value:  Size  Location     Type
  5833 ;;                  1    wreg      void 
  5834 ;; Registers used:
  5835 ;;		wreg, status,2, status,0, pclath, cstack
  5836 ;; Tracked objects:
  5837 ;;		On entry : 0/0
  5838 ;;		On exit  : 0/0
  5839 ;;		Unchanged: 0/0
  5840 ;; Data sizes:     COMMON   BANK0   BANK1   BANK3   BANK2
  5841 ;;      Params:         0       4       0       0       0
  5842 ;;      Locals:         0       0       0       0       0
  5843 ;;      Temps:          0       4       0       0       0
  5844 ;;      Totals:         0       8       0       0       0
  5845 ;;Total ram usage:        8 bytes
  5846 ;; Hardware stack levels used:    1
  5847 ;; Hardware stack levels required when called:    1
  5848 ;; This function calls:
  5849 ;;		___lldiv
  5850 ;; This function is called by:
  5851 ;;		_main
  5852 ;; This function uses a non-reentrant model
  5853 ;;
  5854                           
  5855                           
  5856                           ;psect for function _I2C_INIT
  5857  0D34                     _I2C_INIT:	
  5858  0D34                     l1766:	
  5859                           ;incstack = 0
  5860                           ; Regs used in _I2C_INIT: [wreg+status,2+status,0+pclath+cstack]
  5861                           
  5862                           
  5863                           ;I2C_MASTER.c: 4:     SSPCON = 0b00101000;
  5864  0D34  3028               	movlw	40
  5865  0D35  1283               	bcf	3,5	;RP0=0, select bank0
  5866  0D36  1303               	bcf	3,6	;RP1=0, select bank0
  5867  0D37  0094               	movwf	20	;volatile
  5868  0D38                     l1768:	
  5869                           
  5870                           ;I2C_MASTER.c: 5:     SSPCON2 = 0;
  5871  0D38  1683               	bsf	3,5	;RP0=1, select bank1
  5872  0D39  1303               	bcf	3,6	;RP1=0, select bank1
  5873  0D3A  0191               	clrf	17	;volatile
  5874  0D3B                     l1770:	
  5875                           
  5876                           ;I2C_MASTER.c: 6:     SSPADD = (4000000/(4*c))-1;
  5877  0D3B  1283               	bcf	3,5	;RP0=0, select bank0
  5878  0D3C  1303               	bcf	3,6	;RP1=0, select bank0
  5879  0D3D  0820               	movf	I2C_INIT@c,w
  5880  0D3E  00A4               	movwf	??_I2C_INIT
  5881  0D3F  0821               	movf	I2C_INIT@c+1,w
  5882  0D40  00A5               	movwf	??_I2C_INIT+1
  5883  0D41  0822               	movf	I2C_INIT@c+2,w
  5884  0D42  00A6               	movwf	??_I2C_INIT+2
  5885  0D43  0823               	movf	I2C_INIT@c+3,w
  5886  0D44  00A7               	movwf	??_I2C_INIT+3
  5887  0D45  3002               	movlw	2
  5888  0D46                     u1755:	
  5889  0D46  1003               	clrc
  5890  0D47  0DA4               	rlf	??_I2C_INIT,f
  5891  0D48  0DA5               	rlf	??_I2C_INIT+1,f
  5892  0D49  0DA6               	rlf	??_I2C_INIT+2,f
  5893  0D4A  0DA7               	rlf	??_I2C_INIT+3,f
  5894  0D4B                     u1750:	
  5895  0D4B  3EFF               	addlw	-1
  5896  0D4C  1D03               	skipz
  5897  0D4D  2D46               	goto	u1755
  5898  0D4E  0827               	movf	??_I2C_INIT+3,w
  5899  0D4F  00F3               	movwf	___lldiv@divisor+3
  5900  0D50  0826               	movf	??_I2C_INIT+2,w
  5901  0D51  00F2               	movwf	___lldiv@divisor+2
  5902  0D52  0825               	movf	??_I2C_INIT+1,w
  5903  0D53  00F1               	movwf	___lldiv@divisor+1
  5904  0D54  0824               	movf	??_I2C_INIT,w
  5905  0D55  00F0               	movwf	___lldiv@divisor
  5906  0D56  3000               	movlw	0
  5907  0D57  00F7               	movwf	___lldiv@dividend+3
  5908  0D58  303D               	movlw	61
  5909  0D59  00F6               	movwf	___lldiv@dividend+2
  5910  0D5A  3009               	movlw	9
  5911  0D5B  00F5               	movwf	___lldiv@dividend+1
  5912  0D5C  3000               	movlw	0
  5913  0D5D  00F4               	movwf	___lldiv@dividend
  5914  0D5E  120A  158A  2645  120A  158A  	fcall	___lldiv
  5915  0D63  0870               	movf	?___lldiv,w
  5916  0D64  3EFF               	addlw	255
  5917  0D65  1683               	bsf	3,5	;RP0=1, select bank1
  5918  0D66  1303               	bcf	3,6	;RP1=0, select bank1
  5919  0D67  0093               	movwf	19	;volatile
  5920  0D68                     l1772:	
  5921                           
  5922                           ;I2C_MASTER.c: 7:     SSPSTAT = 0;
  5923  0D68  0194               	clrf	20	;volatile
  5924  0D69                     l1774:	
  5925                           
  5926                           ;I2C_MASTER.c: 8:     TRISCbits.TRISC3 = 1;
  5927  0D69  1587               	bsf	7,3	;volatile
  5928  0D6A                     l1776:	
  5929                           
  5930                           ;I2C_MASTER.c: 9:     TRISCbits.TRISC4 = 1;
  5931  0D6A  1607               	bsf	7,4	;volatile
  5932  0D6B                     l31:	
  5933  0D6B  0008               	return
  5934  0D6C                     __end_of_I2C_INIT:	
  5935                           
  5936                           	psect	text27
  5937  0E45                     __ptext27:	
  5938 ;; *************** function ___lldiv *****************
  5939 ;; Defined at:
  5940 ;;		line 5 in file "C:\Program Files (x86)\Microchip\xc8\v2.10\pic\sources\c90\common\__lldiv.c"
  5941 ;; Parameters:    Size  Location     Type
  5942 ;;  divisor         4    0[COMMON] unsigned long 
  5943 ;;  dividend        4    4[COMMON] unsigned long 
  5944 ;; Auto vars:     Size  Location     Type
  5945 ;;  quotient        4    9[COMMON] unsigned long 
  5946 ;;  counter         1   13[COMMON] unsigned char 
  5947 ;; Return value:  Size  Location     Type
  5948 ;;                  4    0[COMMON] unsigned long 
  5949 ;; Registers used:
  5950 ;;		wreg, status,2, status,0
  5951 ;; Tracked objects:
  5952 ;;		On entry : 0/0
  5953 ;;		On exit  : 0/0
  5954 ;;		Unchanged: 0/0
  5955 ;; Data sizes:     COMMON   BANK0   BANK1   BANK3   BANK2
  5956 ;;      Params:         8       0       0       0       0
  5957 ;;      Locals:         5       0       0       0       0
  5958 ;;      Temps:          1       0       0       0       0
  5959 ;;      Totals:        14       0       0       0       0
  5960 ;;Total ram usage:       14 bytes
  5961 ;; Hardware stack levels used:    1
  5962 ;; This function calls:
  5963 ;;		Nothing
  5964 ;; This function is called by:
  5965 ;;		_I2C_INIT
  5966 ;; This function uses a non-reentrant model
  5967 ;;
  5968                           
  5969                           
  5970                           ;psect for function ___lldiv
  5971  0E45                     ___lldiv:	
  5972  0E45                     l1698:	
  5973                           ;incstack = 0
  5974                           ; Regs used in ___lldiv: [wreg+status,2+status,0]
  5975                           
  5976  0E45  3000               	movlw	0
  5977  0E46  00FC               	movwf	___lldiv@quotient+3
  5978  0E47  3000               	movlw	0
  5979  0E48  00FB               	movwf	___lldiv@quotient+2
  5980  0E49  3000               	movlw	0
  5981  0E4A  00FA               	movwf	___lldiv@quotient+1
  5982  0E4B  3000               	movlw	0
  5983  0E4C  00F9               	movwf	___lldiv@quotient
  5984  0E4D  0873               	movf	___lldiv@divisor+3,w
  5985  0E4E  0472               	iorwf	___lldiv@divisor+2,w
  5986  0E4F  0471               	iorwf	___lldiv@divisor+1,w
  5987  0E50  0470               	iorwf	___lldiv@divisor,w
  5988  0E51  1903               	skipnz
  5989  0E52  2E54               	goto	u1621
  5990  0E53  2E55               	goto	u1620
  5991  0E54                     u1621:	
  5992  0E54  2EA2               	goto	l1718
  5993  0E55                     u1620:	
  5994  0E55                     l1700:	
  5995  0E55  01FD               	clrf	___lldiv@counter
  5996  0E56  0AFD               	incf	___lldiv@counter,f
  5997  0E57  2E65               	goto	l1704
  5998  0E58                     l1702:	
  5999  0E58  3001               	movlw	1
  6000  0E59  00F8               	movwf	??___lldiv
  6001  0E5A                     u1635:	
  6002  0E5A  1003               	clrc
  6003  0E5B  0DF0               	rlf	___lldiv@divisor,f
  6004  0E5C  0DF1               	rlf	___lldiv@divisor+1,f
  6005  0E5D  0DF2               	rlf	___lldiv@divisor+2,f
  6006  0E5E  0DF3               	rlf	___lldiv@divisor+3,f
  6007  0E5F  0BF8               	decfsz	??___lldiv,f
  6008  0E60  2E5A               	goto	u1635
  6009  0E61  3001               	movlw	1
  6010  0E62  00F8               	movwf	??___lldiv
  6011  0E63  0878               	movf	??___lldiv,w
  6012  0E64  07FD               	addwf	___lldiv@counter,f
  6013  0E65                     l1704:	
  6014  0E65  1FF3               	btfss	___lldiv@divisor+3,7
  6015  0E66  2E68               	goto	u1641
  6016  0E67  2E69               	goto	u1640
  6017  0E68                     u1641:	
  6018  0E68  2E58               	goto	l1702
  6019  0E69                     u1640:	
  6020  0E69                     l1706:	
  6021  0E69  3001               	movlw	1
  6022  0E6A  00F8               	movwf	??___lldiv
  6023  0E6B                     u1655:	
  6024  0E6B  1003               	clrc
  6025  0E6C  0DF9               	rlf	___lldiv@quotient,f
  6026  0E6D  0DFA               	rlf	___lldiv@quotient+1,f
  6027  0E6E  0DFB               	rlf	___lldiv@quotient+2,f
  6028  0E6F  0DFC               	rlf	___lldiv@quotient+3,f
  6029  0E70  0BF8               	decfsz	??___lldiv,f
  6030  0E71  2E6B               	goto	u1655
  6031  0E72                     l1708:	
  6032  0E72  0873               	movf	___lldiv@divisor+3,w
  6033  0E73  0277               	subwf	___lldiv@dividend+3,w
  6034  0E74  1D03               	skipz
  6035  0E75  2E80               	goto	u1665
  6036  0E76  0872               	movf	___lldiv@divisor+2,w
  6037  0E77  0276               	subwf	___lldiv@dividend+2,w
  6038  0E78  1D03               	skipz
  6039  0E79  2E80               	goto	u1665
  6040  0E7A  0871               	movf	___lldiv@divisor+1,w
  6041  0E7B  0275               	subwf	___lldiv@dividend+1,w
  6042  0E7C  1D03               	skipz
  6043  0E7D  2E80               	goto	u1665
  6044  0E7E  0870               	movf	___lldiv@divisor,w
  6045  0E7F  0274               	subwf	___lldiv@dividend,w
  6046  0E80                     u1665:	
  6047  0E80  1C03               	skipc
  6048  0E81  2E83               	goto	u1661
  6049  0E82  2E84               	goto	u1660
  6050  0E83                     u1661:	
  6051  0E83  2E93               	goto	l1714
  6052  0E84                     u1660:	
  6053  0E84                     l1710:	
  6054  0E84  0870               	movf	___lldiv@divisor,w
  6055  0E85  02F4               	subwf	___lldiv@dividend,f
  6056  0E86  0871               	movf	___lldiv@divisor+1,w
  6057  0E87  1C03               	skipc
  6058  0E88  0F71               	incfsz	___lldiv@divisor+1,w
  6059  0E89  02F5               	subwf	___lldiv@dividend+1,f
  6060  0E8A  0872               	movf	___lldiv@divisor+2,w
  6061  0E8B  1C03               	skipc
  6062  0E8C  0F72               	incfsz	___lldiv@divisor+2,w
  6063  0E8D  02F6               	subwf	___lldiv@dividend+2,f
  6064  0E8E  0873               	movf	___lldiv@divisor+3,w
  6065  0E8F  1C03               	skipc
  6066  0E90  0F73               	incfsz	___lldiv@divisor+3,w
  6067  0E91  02F7               	subwf	___lldiv@dividend+3,f
  6068  0E92                     l1712:	
  6069  0E92  1479               	bsf	___lldiv@quotient,0
  6070  0E93                     l1714:	
  6071  0E93  3001               	movlw	1
  6072  0E94                     u1675:	
  6073  0E94  1003               	clrc
  6074  0E95  0CF3               	rrf	___lldiv@divisor+3,f
  6075  0E96  0CF2               	rrf	___lldiv@divisor+2,f
  6076  0E97  0CF1               	rrf	___lldiv@divisor+1,f
  6077  0E98  0CF0               	rrf	___lldiv@divisor,f
  6078  0E99  3EFF               	addlw	-1
  6079  0E9A  1D03               	skipz
  6080  0E9B  2E94               	goto	u1675
  6081  0E9C                     l1716:	
  6082  0E9C  3001               	movlw	1
  6083  0E9D  02FD               	subwf	___lldiv@counter,f
  6084  0E9E  1D03               	btfss	3,2
  6085  0E9F  2EA1               	goto	u1681
  6086  0EA0  2EA2               	goto	u1680
  6087  0EA1                     u1681:	
  6088  0EA1  2E69               	goto	l1706
  6089  0EA2                     u1680:	
  6090  0EA2                     l1718:	
  6091  0EA2  087C               	movf	___lldiv@quotient+3,w
  6092  0EA3  00F3               	movwf	?___lldiv+3
  6093  0EA4  087B               	movf	___lldiv@quotient+2,w
  6094  0EA5  00F2               	movwf	?___lldiv+2
  6095  0EA6  087A               	movf	___lldiv@quotient+1,w
  6096  0EA7  00F1               	movwf	?___lldiv+1
  6097  0EA8  0879               	movf	___lldiv@quotient,w
  6098  0EA9  00F0               	movwf	?___lldiv
  6099  0EAA                     l309:	
  6100  0EAA  0008               	return
  6101  0EAB                     __end_of___lldiv:	
  6102  007E                     btemp	set	126	;btemp
  6103  007E                     wtemp0	set	126


Data Sizes:
    Strings     18
    Constant    0
    Data        0
    BSS         33
    Persistent  0
    Stack       0

Auto Spaces:
    Space          Size  Autos    Used
    COMMON           14     14      14
    BANK0            80     56      79
    BANK1            80      0      10
    BANK3            96      0       0
    BANK2            96      0       0

Pointer List with Targets:

    strcpy@from	PTR const unsigned char  size(1) Largest target is 2
		 -> STR_2(CODE[2]), 

    strcpy@to	PTR unsigned char  size(1) Largest target is 5
		 -> PUNTO1(BANK1[5]), 

    strcpy@cp	PTR unsigned char  size(1) Largest target is 5
		 -> PUNTO1(BANK1[5]), 

    strcat@from	PTR const unsigned char  size(1) Largest target is 5
		 -> PUNTO1(BANK1[5]), POT1SB(BANK0[5]), POT1SA(BANK1[5]), 

    strcat@to	PTR unsigned char  size(1) Largest target is 5
		 -> PUNTO1(BANK1[5]), POT1SC(BANK0[5]), POT1SB(BANK0[5]), 

    strcat@cp	PTR unsigned char  size(1) Largest target is 5
		 -> PUNTO1(BANK1[5]), POT1SC(BANK0[5]), POT1SB(BANK0[5]), 

    utoa@buf	PTR unsigned char  size(1) Largest target is 5
		 -> POT1SC(BANK0[5]), POT1SB(BANK0[5]), POT1SA(BANK1[5]), 

    sp__utoa	PTR unsigned char  size(1) Largest target is 5
		 -> POT1SC(BANK0[5]), POT1SB(BANK0[5]), POT1SA(BANK1[5]), 

    itoa@buf	PTR unsigned char  size(1) Largest target is 5
		 -> POT1SC(BANK0[5]), POT1SB(BANK0[5]), POT1SA(BANK1[5]), 

    itoa@cp	PTR unsigned char  size(1) Largest target is 5
		 -> POT1SC(BANK0[5]), POT1SB(BANK0[5]), POT1SA(BANK1[5]), 

    lcd_msg@c	PTR unsigned char  size(2) Largest target is 18
		 -> POT1SC(BANK0[5]), STR_1(CODE[18]), 

    sp__strcpy	PTR unsigned char  size(1) Largest target is 5
		 -> PUNTO1(BANK1[5]), 

    sp__strcat	PTR unsigned char  size(1) Largest target is 5
		 -> PUNTO1(BANK1[5]), POT1SC(BANK0[5]), POT1SB(BANK0[5]), 

    sp__itoa	PTR unsigned char  size(1) Largest target is 5
		 -> POT1SC(BANK0[5]), POT1SB(BANK0[5]), POT1SA(BANK1[5]), 


Critical Paths under _main in COMMON

    _main->___awmod
    _main->___xxtofl
    _main->_itoa
    _lcd_msg->_lcd_dwr
    _lcd_dwr->_lcd_lat
    _lcd_dwr->_lcd_ready
    _lcd_cmd->_lcd_lat
    _lcd_cmd->_lcd_ready
    _itoa->_utoa
    _utoa->___lwdiv
    ___flmul->___xxtofl
    ___fldiv->___xxtofl
    ___awmod->___awdiv
    _I2C_INIT->___lldiv

Critical Paths under _main in BANK0

    _main->___fldiv
    _itoa->_utoa
    ___fltol->___flmul
    ___fldiv->___flmul

Critical Paths under _main in BANK1

    None.

Critical Paths under _main in BANK3

    None.

Critical Paths under _main in BANK2

    None.

Call Graph Tables:

 ---------------------------------------------------------------------------------
 (Depth) Function   	        Calls       Base Space   Used Autos Params    Refs
 ---------------------------------------------------------------------------------
 (0) _main                                                 4     4      0    9386
                                             52 BANK0      4     4      0
                           _I2C_INIT
                    _I2C_Master_Read
                   _I2C_Master_Start
                    _I2C_Master_Stop
                   _I2C_Master_Write
                              _SETUP
                            ___awdiv
                            ___awmod
                            ___fldiv
                            ___flmul
                            ___fltol
                           ___xxtofl
                            _initOsc
                               _itoa
                            _lcd_cmd
                            _lcd_msg
                             _strcat
                             _strcpy
 ---------------------------------------------------------------------------------
 (2) _strcpy                                               4     3      1     184
                                              0 COMMON     4     3      1
 ---------------------------------------------------------------------------------
 (1) _strcat                                               4     3      1     425
                                              0 COMMON     4     3      1
 ---------------------------------------------------------------------------------
 (1) _lcd_msg                                              2     0      2     219
                                              3 COMMON     2     0      2
                            _lcd_dwr
 ---------------------------------------------------------------------------------
 (2) _lcd_dwr                                              1     1      0      22
                                              2 COMMON     1     1      0
                            _lcd_lat
                          _lcd_ready
 ---------------------------------------------------------------------------------
 (1) _lcd_cmd                                              1     1      0      22
                                              2 COMMON     1     1      0
                            _lcd_lat
                          _lcd_ready
 ---------------------------------------------------------------------------------
 (3) _lcd_ready                                            2     2      0       0
                                              0 COMMON     2     2      0
 ---------------------------------------------------------------------------------
 (3) _lcd_lat                                              2     2      0       0
                                              0 COMMON     2     2      0
 ---------------------------------------------------------------------------------
 (1) _itoa                                                 7     3      4    1982
                                             13 COMMON     1     1      0
                                              4 BANK0      6     2      4
                               _utoa
 ---------------------------------------------------------------------------------
 (2) _utoa                                                 9     5      4    1264
                                              8 COMMON     5     1      4
                                              0 BANK0      4     4      0
                            ___lwdiv
                            ___lwmod
 ---------------------------------------------------------------------------------
 (3) ___lwmod                                              6     2      4     311
                                              0 COMMON     6     2      4
 ---------------------------------------------------------------------------------
 (3) ___lwdiv                                              8     4      4     466
                                              0 COMMON     8     4      4
 ---------------------------------------------------------------------------------
 (1) _initOsc                                              3     3      0      22
                                              0 COMMON     3     3      0
 ---------------------------------------------------------------------------------
 (1) ___xxtofl                                            14    10      4     398
                                              0 COMMON    14    10      4
 ---------------------------------------------------------------------------------
 (1) ___fltol                                             11     7      4     305
                                             26 BANK0     11     7      4
                            ___flmul (ARG)
 ---------------------------------------------------------------------------------
 (1) ___flmul                                             26    18      8    2569
                                              0 BANK0     26    18      8
                          __Umul8_16
                           ___xxtofl (ARG)
 ---------------------------------------------------------------------------------
 (2) __Umul8_16                                            9     7      2     799
                                              0 COMMON     9     7      2
 ---------------------------------------------------------------------------------
 (1) ___fldiv                                             26    18      8    1273
                                             26 BANK0     26    18      8
                            ___flmul (ARG)
                           ___xxtofl (ARG)
 ---------------------------------------------------------------------------------
 (1) ___awmod                                              7     3      4     752
                                              9 COMMON     5     1      4
                                              0 BANK0      2     2      0
                            ___awdiv (ARG)
 ---------------------------------------------------------------------------------
 (1) ___awdiv                                              9     5      4     604
                                              0 COMMON     9     5      4
 ---------------------------------------------------------------------------------
 (1) _SETUP                                                0     0      0       0
 ---------------------------------------------------------------------------------
 (1) _I2C_Master_Write                                     2     0      2      98
                                              0 COMMON     2     0      2
                    _I2C_Master_Wait
 ---------------------------------------------------------------------------------
 (1) _I2C_Master_Stop                                      0     0      0       0
                    _I2C_Master_Wait
 ---------------------------------------------------------------------------------
 (1) _I2C_Master_Start                                     0     0      0       0
                    _I2C_Master_Wait
 ---------------------------------------------------------------------------------
 (1) _I2C_Master_Read                                      6     4      2     121
                                              0 COMMON     6     4      2
                    _I2C_Master_Wait
 ---------------------------------------------------------------------------------
 (2) _I2C_Master_Wait                                      0     0      0       0
 ---------------------------------------------------------------------------------
 (1) _I2C_INIT                                             8     4      4     412
                                              0 BANK0      8     4      4
                            ___lldiv
 ---------------------------------------------------------------------------------
 (2) ___lldiv                                             14     6      8     314
                                              0 COMMON    14     6      8
 ---------------------------------------------------------------------------------
 Estimated maximum stack depth 3
 ---------------------------------------------------------------------------------

 Call Graph Graphs:

 _main (ROOT)
   _I2C_INIT
     ___lldiv
   _I2C_Master_Read
     _I2C_Master_Wait
   _I2C_Master_Start
     _I2C_Master_Wait
   _I2C_Master_Stop
     _I2C_Master_Wait
   _I2C_Master_Write
     _I2C_Master_Wait
   _SETUP
   ___awdiv
   ___awmod
     ___awdiv (ARG)
   ___fldiv
     ___flmul (ARG)
       __Umul8_16
       ___xxtofl (ARG)
     ___xxtofl (ARG)
   ___flmul
     __Umul8_16
     ___xxtofl (ARG)
   ___fltol
     ___flmul (ARG)
       __Umul8_16
       ___xxtofl (ARG)
   ___xxtofl
   _initOsc
   _itoa
     _utoa
       ___lwdiv
       ___lwmod
   _lcd_cmd
     _lcd_lat
     _lcd_ready
   _lcd_msg
     _lcd_dwr
       _lcd_lat
       _lcd_ready
   _strcat
   _strcpy

 Address spaces:
Name               Size   Autos  Total    Cost      Usage
BITCOMMON            E      0       0       0        0.0%
EEDATA             100      0       0       0        0.0%
NULL                 0      0       0       0        0.0%
CODE                 0      0       0       0        0.0%
COMMON               E      E       E       1      100.0%
BITSFR0              0      0       0       1        0.0%
SFR0                 0      0       0       1        0.0%
BITSFR1              0      0       0       2        0.0%
SFR1                 0      0       0       2        0.0%
STACK                0      0       0       2        0.0%
ABS                  0      0      67       3        0.0%
BITBANK0            50      0       0       4        0.0%
BITSFR3              0      0       0       4        0.0%
SFR3                 0      0       0       4        0.0%
BANK0               50     38      4F       5       98.8%
BITSFR2              0      0       0       5        0.0%
SFR2                 0      0       0       5        0.0%
BITBANK1            50      0       0       6        0.0%
BANK1               50      0       A       7       12.5%
BITBANK3            60      0       0       8        0.0%
BANK3               60      0       0       9        0.0%
BITBANK2            60      0       0      10        0.0%
BANK2               60      0       0      11        0.0%
DATA                 0      0      67      12        0.0%


Microchip Technology PIC Macro Assembler V2.10 build 88905656 
Symbol Table                                                                                   Wed Feb 26 15:47:08 2020

             ___fldiv@aexp 0053               ___fldiv@bexp 0052                          pc 0002  
             ___fldiv@sign 004B                __CFG_CP$OFF 0000                         l31 0D6B  
                       l40 0BBC                         l34 0BD0                         l52 0D2B  
                       l37 0BDC                         l53 0D2E                         l54 0D33  
                       l46 0BC5                         l49 0BCF                         _V1 0062  
             ___awdiv@sign 0076                         fsr 0004        __Umul8_16@word_mpld 0076  
                      l140 000B                        l141 0063                        l134 0BFB  
                      l150 0064                        l142 0011                        l143 0017  
                      l144 001D                        l145 0023                        l146 0029  
                      l170 0BEB                        l147 002F                        l148 0035  
                      l309 0EAA                        l149 003B                        l175 0CDC  
                      l167 0C0D                        _ADC 0064                        l184 0C8C  
                      l426 0F11                        l178 0C1F                        l700 0087  
                      l622 0309                        l702 011E                        l439 0E44  
                      l624 0489                        l713 00E8                        l545 0DE9  
                      l721 0C66                        l466 0FEA                        l714 00F4  
                      l706 00CC                        l459 0FFF                        l555 0DA5  
                      l644 046D                        l469 0FFF                        l646 047D  
                      l638 03FB                        l750 0CB3                        l662 07EA  
                      l727 0F6C                        l744 0C40                        l729 0F83  
                      l674 07DE                        l738 0D05                        l748 0CA1  
                      l668 0756                        _GIE 005F                        _RD2 0042  
                      _RD3 0043                        _RD7 0047               __CFG_CPD$OFF 0000  
                      fsr0 0004                        indf 0000               ___awmod@sign 0021  
             ___flmul@aexp 0032               ___flmul@bexp 0033               ___flmul@sign 002D  
             ___flmul@temp 0038               ___flmul@prod 0034               __CFG_LVP$OFF 0000  
             ___fltol@exp1 0044                       l2000 02AD                       l2010 02C4  
                     l2002 02B4                       l2100 03DF                       l2020 02DC  
                     l2012 02C9                       l2004 02BA                       l2110 0400  
                     l2102 03E0                       l2030 02F1                       l2022 02E1  
                     l2014 02D1                       l2006 02BE                       l2112 0405  
                     l2120 0436                       l2104 03E4                       l2040 0311  
                     l2032 02F6                       l2024 02E7                       l2016 02D2  
                     l2008 02BF                       l2200 05B1                       l2130 046C  
                     l2122 0443                       l2114 0413                       l2106 03F8  
                     l2050 032F                       l2042 031D                       l2034 02FE  
                     l2026 02EB                       l2018 02D4                       l2210 0614  
                     l2202 05BA                       l2132 0473                       l2124 0451  
                     l2116 0417                       l2060 035A                       l2044 0321  
                     l2036 02FF                       l2028 02EC                       l2220 06B4  
                     l2212 062D                       l2204 05CA                       l2300 00B1  
                     l2134 0477                       l2126 0460                       l2118 0430  
                     l2070 037F                       l2062 0362                       l2054 0338  
                     l2038 0301                       l2230 0722                       l2222 06DA  
                     l2214 064A                       l2206 05E7                       l2150 049C  
                     l2142 048A                       l2310 00E2                       l2302 00B5  
                     l2136 0479                       l2128 0464                       l2080 03AA  
                     l2072 0380                       l2064 0364                       l2056 034A  
                     l2048 032A                       l2240 073A                       l2232 0726  
                     l2224 0702                       l2216 0677                       l2208 05F7  
                     l2160 04B8                       l2152 04A1                       l2144 0491  
                     l2320 0115                       l2312 00EC                       l2304 00C3  
                     l2090 03C7                       l2066 0369                       l2074 0389  
                     l2082 03AE                       l2058 0352                       l2250 075B  
                     l2242 073B                       l2234 0727                       l2226 070B  
                     l2218 0687                       l2170 04CD                       l2162 04BD  
                     l2154 04A6                       l2146 0497                       l2322 0116  
                     l2314 00F6                       l2306 00D3                       l1610 0CB4  
                     l2330 011F                       l1700 0E55                       l2092 03CB  
                     l2084 03B4                       l2076 039B                       l2068 037B  
                     l2252 0760                       l2260 0791                       l2244 073F  
                     l2236 0730                       l2228 0719                       l2180 04E9  
                     l2172 04D2                       l2164 04C3                       l2156 04AE  
                     l2148 049B                       l2316 010C                       l2308 00DE  
                     l1620 0CBF                       l1612 0CB8                       l2340 0147  
                     l2332 0124                       l1710 0E84                       l1702 0E58  
                     l2094 03CC                       l2086 03BC                       l2078 039C  
                     l2270 07C4                       l2262 079E                       l2254 076E  
                     l2246 0753                       l2238 0736                       l2190 0514  
                     l2182 04EE                       l2174 04DA                       l2166 04C7  
                     l2158 04B0                       l2318 0111                       l1630 0BDD  
                     l1622 0CC7                       l1614 0CBC                       l2350 01BF  
                     l2342 0150                       l2334 012A                       l1712 0E92  
                     l1704 0E65                       l1800 0D27                       l2096 03D5  
                     l2088 03BE                       l2272 07D2                       l2264 07A9  
                     l2256 0772                       l2192 0531                       l2176 04DC  
                     l2168 04C8                       l1640 0DAE                       l1632 0BE0  
                     l1624 0CD0                       l1616 0CBD                       l2360 023A  
                     l2352 01E9                       l2344 015E                       l2336 0139  
                     l1714 0E93                       l1706 0E69                       l1802 0D2F  
                     l1810 0BF2                       l2098 03DB                       l1730 0CAA  
                     l1722 0C8E                       l2274 07D6                       l2266 07B8  
                     l2258 078B                       l2194 054D                       l2186 04F7  
                     l2178 04E4                       l2290 008F                       l2282 0066  
                     l1650 0DD1                       l1642 0DB1                       l1634 0BE8  
                     l1626 0CD1                       l1618 0CBE                       l2370 028E  
                     l2362 025C                       l2354 01FC                       l2346 0163  
                     l2338 0142                       l1716 0E9C                       l1708 0E72  
                     l1820 0BF9                       l1812 0BF3                       l1900 0ECC  
                     l1732 0CAF                       l1724 0C90                       l2276 07D7  
                     l2268 07C2                       l2196 0579                       l2188 0507  
                     l2284 006B                       l1652 0DD7                       l1644 0DB8  
                     l1636 0DA6                       l1740 0F2C                       l1628 0CD9  
                     l2372 029A                       l2364 026A                       l2356 020A  
                     l2348 0172                       l1718 0EA2                       l1822 0BFA  
                     l1814 0BF4                       l1806 0BEC                       l1910 0EEF  
                     l1902 0ECF                       l1726 0C97                       l2278 07E2  
                     l2198 0595                       l2294 0098                       l2286 006F  
                     l1654 0DD8                       l1646 0DBC                       l1638 0DA8  
                     l1670 0D80                       l1662 0D6C                       l1750 0F4F  
                     l1742 0F30                       l2374 02A0                       l2366 0276  
                     l2358 022C                       l1816 0BF7                       l1808 0BF0  
                     l1920 0F08                       l1912 0EF5                       l1904 0ED6  
                     l1728 0C9B                       l2296 009D                       l2288 007F  
                     l1824 000A                       l1656 0DDF                       l1648 0DC0  
                     l1672 0D84                       l1664 0D72                       l1680 0DA1  
                     l1760 0F79                       l1752 0F60                       l1744 0F36  
                     l1736 0F15                       l1840 0C7C                       l2368 0282  
                     l1770 0D3B                       l1818 0BF8                       l1922 0F0D  
                     l1914 0EF6                       l1906 0EDA                       l1930 0DF1  
                     l2298 00AA                       l1658 0DE5                       l1674 0D8E  
                     l1666 0D75                       l1762 0F7F                       l1754 0F68  
                     l1746 0F3A                       l1738 0F19                       l1850 0C53  
                     l1842 0C44                       l1690 0C14                       l1834 0C67  
                     l1772 0D68                       l1684 0BD0                       l1780 0BB9  
                     l1916 0EFD                       l1908 0EDE                       l1940 0E07  
                     l1932 0DF6                       l1828 0041                       l1676 0D94  
                     l1668 0D7C                       l1756 0F70                       l1748 0F3C  
                     l1852 0C58                       l1844 0C44                       l1692 0C18  
                     l1836 0C68                       l1860 0CE7                       l1774 0D69  
                     l1766 0D34                       l1686 0BD6                       l1790 0D06  
                     l1782 0BBD                       l1918 0F03                       l1950 0E23  
                     l1942 0E0A                       l1934 0DF8                       l1926 0DEA  
                     l2398 0049                       l1678 0D9B                       l1758 0F77  
                     l1846 0C48                       l1694 0C19                       l1838 0C76  
                     l1862 0CF0                       l1870 0C2E                       l1776 0D6A  
                     l1768 0D38                       l1792 0D0B                       l1784 0BC2  
                     l1960 0E40                       l1952 0E29                       l1944 0E11  
                     l1936 0DFC                       l1928 0DED                       l1848 0C4F  
                     l1880 0C08                       l1872 0BFD                       l1696 0C1A  
                     l1688 0C0F                       l1864 0CF8                       l1856 0CDE  
                     l1698 0E45                       l1794 0D13                       l1778 0BB4  
                     l1786 0BC6                       l1890 0EB7                       l1882 0EAB  
                     l1954 0E30                       l1946 0E15                       l1938 0E01  
                     l1970 0F9A                       l1874 0C02                       l1858 0CE3  
                     l1866 0C21                       l1796 0D1C                       l1788 0BCB  
                     l1892 0EBB                       l1884 0EAC                       l1948 0E19  
                     l1956 0E36                       l1980 0FBE                       l1972 0FAF  
                     l1964 0F84                       l1876 0C06                       l1868 0C26  
                     l1798 0D21                       l1894 0EC0                       l1886 0EB0  
                     l1958 0E3B                       l1974 0FB0                       l1966 0F91  
                     l1878 0C07                       l1896 0EC4                       l1888 0EB5  
                     l1976 0FB8                       l1898 0EC6                       l1994 0FDF  
                     l1986 0FC6                       l1978 0FBA                       l1996 0FEF  
                     l1988 0FD8                       l1998 0FF4                       STR_1 0810  
                     STR_2 0820                       u2000 0E3B                       u2001 0E3A  
                     u2010 0F91                       u2011 0F90                       u2100 0FF4  
                     u2020 0FA8                       u2101 0FF3                       u2110 02BE  
                     u2030 0FBE                       u2111 02BD                       u2031 0FBD  
                     u2120 02C4                       u2040 0FC5                       u2121 02C3  
                     u2041 0FC4                       u2025 0FA3                       u2130 02C9  
                     u2131 02C8                       u2300 03DF                       u2220 037F  
                     u2140 02EB                       u2060 0FD7                       u2301 03DE  
                     u2221 037E                       u2205 036B                       u2141 02EA  
                     u2061 0FD6                       u2310 03E4                       u2150 02F1  
                     u2070 0FDE                       u1510 0DD1                       u2311 03E3  
                     u2215 0374                       u2151 02F0                       u2071 0FDD  
                     u2055 0FC7                       u1511 0DD0                       u1600 0BD6  
                     u2320 03F8                       u2240 039B                       u2160 02F6  
                     u2400 049B                       u1601 0BD5                       u2321 03F7  
                     u2241 039A                       u2161 02F5                       u2401 049A  
                     u1505 0DC1                       u1610 0BDC                       u2330 03FF  
                     u2250 03B4                       u2170 0311                       u2410 04A1  
                     u2090 0FEF                       u1530 0DE5                       u1611 0BDB  
                     u2331 03FE                       u2251 03B3                       u2235 0382  
                     u2171 0310                       u2411 04A0                       u2091 0FEE  
                     u1531 0DE4                       u1515 0DCD                       u1620 0E55  
                     u2340 0405                       u2260 03BC                       u2180 032F  
                     u2420 04A6                       u1540 0D72                       u1460 0CD0  
                     u1621 0E54                       u2341 0404                       u2261 03BB  
                     u2245 0397                       u2181 032E                       u2501 0587  
                     u2421 04A5                       u2085 0FE1                       u1525 0DD9  
                     u1541 0D71                       u1461 0CCF                       u2350 0417  
                     u2190 0369                       u1710 0CAF                       u2502 058E  
                     u2430 04C7                       u1470 0DAE                       u2351 0416  
                     u2191 0368                       u1711 0CAE                       u2511 05A3  
                     u2503 0595                       u2431 04C6                       u1471 0DAD  
                     u1640 0E69                       u2360 0426                       u2280 03CB  
                     u2512 05AA                       u2440 04CD                       u1560 0D84  
                     u1720 0F36                       u1800 0D05                       u1641 0E68  
                     u2281 03CA                       u1705 0CA2                       u2601 06CC  
                     u2513 05B1                       u2441 04CC                       u1561 0D83  
                     u1721 0F35                       u1801 0D04                       u2370 0443  
                     u2610 06E8                       u2602 06D3                       u2450 04D2  
                     u1490 0DC0                       u1570 0D8E                       u1730 0F68  
                     u1810 0C40                       u1635 0E5A                       u2371 0442  
                     u2275 03C0                       u2603 06DA                       u2531 05D9  
                     u2451 04D1                       u1491 0DBF                       u1571 0D8D  
                     u1555 0D76                       u1731 0F67                       u1811 0C3F  
                     u1660 0E84                       u1900 0F03                       u1820 0EB0  
                     u2380 0460                       u2700 075A                       u2532 05E0  
                     u2460 04E9                       u1740 0F7F                       u1661 0E83  
                     u1901 0F02                       u1821 0EAF                       u2381 045F  
                     u2365 0421                       u2701 0759                       u2621 06F4  
                     u2541 0606                       u2533 05E7                       u2525 05B3  
                     u2461 04E8                       u1485 0DB2                       u1741 0F7E  
                     u1750 0D4B                       u1910 0F08                       u1830 0EBB  
                     u2390 0477                       u2710 0760                       u2622 06FB  
                     u2542 060D                       u2470 04EE                       u1590 0DA1  
                     u1655 0E6B                       u1911 0F07                       u1831 0EBA  
                     u2391 0476                       u2375 043F                       u2295 03CE  
                     u2711 075F                       u2623 0702                       u2615 06E3  
                     u2543 0614                       u2471 04ED                       u1591 0DA0  
                     u1575 0D8A                       u1680 0EA2                       u1760 0D27  
                     u1840 0ECC                       u1920 0DF1                       u2720 0772  
                     u1681 0EA1                       u1665 0E80                       u1761 0D26  
                     u1841 0ECB                       u1921 0DF0                       u2385 045C  
                     u2721 0771                       u2561 063C                       u2481 053F  
                     u1585 0D95                       u1930 0DFC                       u1690 0C9B  
                     u2730 0781                       u2650 0726                       u2562 0643  
                     u2482 0546                       u2810 00B0                       u1770 0C8C  
                     u1675 0E94                       u1755 0D46                       u1931 0DFB  
                     u1691 0C9A                       u2651 0725                       u2635 0704  
                     u2571 0669                       u2563 064A                       u2555 0616  
                     u2491 055B                       u2483 054D                       u2811 00AF  
                     u1771 0C8B                       u1860 0EDE                       u1940 0E07  
                     u2740 079E                       u2572 0670                       u2492 0562  
                     u2900 0115                       u1780 0C48                       u1861 0EDD  
                     u1941 0E06                       u2741 079D                       u2645 071B  
                     u2581 0696                       u2573 0677                       u2493 0569  
                     u2901 0114                       u2805 00A2                       u1781 0C47  
                     u2750 07B8                       u2670 073A                       u2590 06C0  
                     u2582 069D                       u2830 00D2                       u1790 0CEF  
                     u1855 0ED0                       u2751 07B7                       u2735 077C  
                     u2671 0739                       u2583 06A4                       u2831 00D1  
                     u1791 0CEE                       u1880 0EEF                       u1960 0E19  
                     u2760 07D6                       u2680 073F                       u1881 0EEE  
                     u1961 0E18                       u2761 07D5                       u2745 079A  
                     u2681 073E                       u2665 0729                       u2825 00C4  
                     u1970 0E23                       u2690 0753                       u2850 00E2  
                     u2770 006B                       u1875 0EDF                       u1971 0E22  
                     u1955 0E0B                       u2755 07B4                       u2691 0752  
                     u2595 06BB                       u2851 00E1                       u2771 006A  
                     _PEIE 005E                       u2860 00E8                       u2780 006F  
                     u1885 0EEB                       u2861 00E7                       u2845 00D7  
                     u2781 006E                       u2917 016B                       u1990 0E36  
                     u2870 00EC                       u2790 008F                       u1895 0EF7  
                     u1991 0E35                       u1975 0E1F                       u2871 00EB  
                     u2791 008E                       u2927 0CC3                       u2880 0101  
                     u1985 0E2A                       u2937 0CD5                       u2890 0111  
                     u2891 0110                       u2947 0BE4                       _RCEN 048B  
                     u2885 00FC               __CFG_WRT$OFF 0000           __end_of_I2C_INIT 0D6C  
                     _main 011F                       _itoa 0C41                       btemp 007E  
                     _utoa 0F12                       start 0000              __CFG_IESO$OFF 0000  
          ___fldiv@new_exp 004C           ?_I2C_Master_Read 0070           ?_I2C_Master_Wait 0070  
         ?_I2C_Master_Stop 0070              ___fltol@sign1 0043                      ?_main 0070  
          __end_of___fldiv 048A                      ?_itoa 0024            __end_of___awdiv 0F12  
            __CFG_WDTE$OFF 0000            __end_of___awmod 0E45            __end_of___flmul 07EB  
          __end_of___fltol 1000            __end_of___lldiv 0EAB                      ?_utoa 0078  
          ___awdiv@divisor 0070            __end_of___lwdiv 0DEA            __end_of___lwmod 0DA6  
          ___awdiv@counter 0075                      _POT1A 0060                      _POT1B 005E  
                    _POT1C 005C                      _SETUP 0BEC                      _PORTA 0005  
                    _PORTB 0006                      _PORTC 0007                      _PORTD 0008  
                    _PORTE 0009                      _TRISA 0085                      _TRISB 0086  
                    _TRISC 0087                      _TRISD 0088                      _SSPIE 0463  
                    _TRISE 0089                      _SSPIF 0063             __CFG_FCMEN$OFF 0000  
          __end_of_lcd_cmd 0C0E            __end_of_lcd_lat 0BEC            __end_of_lcd_dwr 0C20  
          __end_of_lcd_msg 0C8D            __end_of_initOsc 0065             __CFG_BOREN$OFF 0000  
                    pclath 000A                      utoa@c 0022                      utoa@v 0020  
                    status 0003                      wtemp0 007E             __CFG_MCLRE$OFF 0000  
          __initialization 07EB               __end_of_main 02AD               __end_of_itoa 0C67  
             __end_of_utoa 0F84                  I2C_INIT@c 0020                     ??_main 0054  
                   ??_itoa 007D                     ??_utoa 007C                     ?_SETUP 0070  
        ?_I2C_Master_Start 0070          ?_I2C_Master_Write 0070         ??_I2C_Master_Start 0070  
       ??_I2C_Master_Write 0072           ___awdiv@dividend 0072                initOsc@frec 0072  
                   _POT1SA 00A5                     _POT1SB 006A                     _POT1SC 0065  
                   _PUNTO1 00A0                     _SSPADD 0093                     _TRISC3 043B  
                   _TRISC4 043C                     _SSPCON 0014                     _SSPBUF 0013  
         __end_of___xxtofl 011F             __CFG_PWRTE$OFF 0000                  ??___fldiv 0042  
                ??___awdiv 0074                  ??___awmod 007D                  ??___flmul 0028  
                ??___fltol 003E                  ??___lldiv 0078                  ??___lwdiv 0074  
                ??___lwmod 0074           ___awdiv@quotient 0077            ___awmod@divisor 0079  
          ___awmod@counter 0020                  ??_lcd_cmd 0072                  ??_lcd_lat 0070  
                   _strcat 0CDD                  ??_lcd_dwr 0072                  ??_lcd_msg 0075  
                   _strcpy 0C20                  ?_I2C_INIT 0020                  ??_initOsc 0070  
       __size_of__Umul8_16 0027               ___xxtofl@arg 007A               ___xxtofl@exp 0079  
             ___xxtofl@val 0070    __end_of__initialization 07FC                 ___fltol@f1 003A  
            __end_of_SETUP 0BFC             __pcstackCOMMON 0070                 ??_I2C_INIT 0024  
                  ??_SETUP 0070         __size_of_lcd_ready 0029                 __pbssBANK0 0058  
               __pbssBANK1 00A0          __end_of__Umul8_16 0CB4                 __pmaintext 011F  
                  ?_strcat 0070                    ?_strcpy 0070                  ?___xxtofl 0070  
                  _SSPCON2 0091                    _SSPSTAT 0094                 __stringtab 0800  
        __end_of_lcd_ready 0CDD                    ___fldiv 02AD                    ___awdiv 0EAB  
                  ___awmod 0DEA                    ___flmul 048A                    ___fltol 0F84  
                  ___lldiv 0E45                    ___lwdiv 0DA6                    ___lwmod 0D6C  
                  __ptext1 0C20                    __ptext2 0CDD                    __ptext3 0C67  
                  __ptext4 0C0E                    __ptext5 0BFC                    __ptext6 0CB4  
                  __ptext7 0BDD                    __ptext8 0C41                    __ptext9 0F12  
                  _lcd_cmd 0BFC                    _lcd_lat 0BDD                    _lcd_dwr 0C0E  
                  _lcd_msg 0C67            __size_of_strcat 0029            __size_of_strcpy 0021  
                  _initOsc 0009                 ??___xxtofl 0074           ___awmod@dividend 007B  
 __size_of_I2C_Master_Read 002E   __size_of_I2C_Master_Wait 000D   __size_of_I2C_Master_Stop 0009  
                  clrloop0 0BAD                    _voltaje 0058       end_of_initialization 07FC  
                  itoa@buf 0029                    itoa@val 0024  __size_of_I2C_Master_Start 0009  
__size_of_I2C_Master_Write 000A            ___lldiv@divisor 0070            ___lldiv@counter 007D  
         I2C_Master_Read@a 0070                    utoa@buf 0023                    utoa@val 0078  
            ___xxtofl@sign 0078                  _TRISCbits 0087          __size_of_I2C_INIT 0038  
              ___fldiv@grs 004E                ___fldiv@rem 0047                ___flmul@grs 002E  
           __end_of_strcat 0D06             __end_of_strcpy 0C41        start_initialization 07EB  
        ??_I2C_Master_Read 0072          ??_I2C_Master_Wait 0070          ??_I2C_Master_Stop 0070  
 __CFG_FOSC$INTRC_NOCLKOUT 0000                  __Umul8_16 0C8D                   ??_strcat 0071  
                 ??_strcpy 0071                  ___fldiv@a 003A                  ___fldiv@b 003E  
                ___flmul@a 0024                  ___flmul@b 0020                  ___latbits 0002  
            __pcstackBANK0 0020          __size_of___xxtofl 00BA           _I2C_Master_Start 0BB4  
         _I2C_Master_Write 0BC6           ___lwdiv@dividend 0072                   ?___fldiv 003A  
                 ?___awdiv 0070                   ?___awmod 0079                   ?___flmul 0020  
                 ?___fltol 003A                   ?___lldiv 0070                 ?__Umul8_16 0070  
                 ?___lwdiv 0070                   ?___lwmod 0070                  _lcd_ready 0CB4  
                __pstrings 0800                   ?_lcd_cmd 0070                   ?_lcd_lat 0070  
                 ?_lcd_dwr 0070                   ?_lcd_msg 0073                   _I2C_INIT 0D34  
                 ?_initOsc 0070             __size_of_SETUP 0010           ___lwdiv@quotient 0075  
                clear_ram0 0BAC                 ?_lcd_ready 0070                __stringbase 080F  
      I2C_Master_Read@temp 0074                ??__Umul8_16 0072           __size_of___fldiv 01DD  
         __size_of___awdiv 0067           __size_of___awmod 005B           __size_of___flmul 0361  
         __size_of___fltol 007C           __size_of___lldiv 0066           __size_of___lwdiv 0044  
         __size_of___lwmod 003A         __end_of__stringtab 0810           __size_of_lcd_cmd 0012  
         __size_of_lcd_lat 000F           __size_of_lcd_dwr 0012           __size_of_lcd_msg 0026  
          _I2C_Master_Read 0D06                   ___xxtofl 0065            _I2C_Master_Wait 0BD0  
               strcat@from 0070            _I2C_Master_Stop 0BBD           __size_of_initOsc 005C  
          ___lwdiv@divisor 0070            ___lwdiv@counter 0077                   __ptext10 0D6C  
                 __ptext11 0DA6                   __ptext20 0BEC                   __ptext12 0009  
                 __ptext21 0BC6                   __ptext13 0065                   __ptext22 0BBD  
                 __ptext14 0F84                   __ptext23 0BB4                   __ptext15 048A  
                 __ptext24 0D06                   __ptext16 0C8D                   __ptext25 0BD0  
                 __ptext17 02AD                   __ptext26 0D34                   __ptext18 0DEA  
                 __ptext27 0E45                   __ptext19 0EAB          __CFG_BOR4V$BOR40V 0000  
               strcpy@from 0070              __size_of_main 018E              __size_of_itoa 0026  
            __size_of_utoa 0072                   lcd_cmd@x 0072                   lcd_dwr@x 0072  
                 lcd_msg@c 0073                ??_lcd_ready 0070   __end_of_I2C_Master_Start 0BBD  
 __end_of_I2C_Master_Write 0BD0                   itoa@base 0026           ___lwmod@dividend 0072  
         ___lldiv@dividend 0074                  stringcode 080A                 _OSCCONbits 008F  
  __end_of_I2C_Master_Read 0D34    __end_of_I2C_Master_Wait 0BDD    __end_of_I2C_Master_Stop 0BC6  
                 utoa@base 007A     __Umul8_16@multiplicand 0070                   strcat@cp 0073  
                 strcat@to 0072           ___lldiv@quotient 0079          I2C_Master_Write@d 0070  
          ___lwmod@divisor 0070                   strcpy@cp 0073                   strcpy@to 0072  
          ___lwmod@counter 0075                   stringdir 080A                   stringtab 0800  
              _SSPCON2bits 0091       __Umul8_16@multiplier 0078          __Umul8_16@product 0074  
